(dp1
S'output'
p2
S'Unable to open included view file: D:\\BACKUP\\web2pyVersion2.14.6\\applications\\esc_legajos\\views\\layout_inscripcion.html'
p3
sS'layer'
p4
S'ParserContainer'
p5
sS'code'
p6
S'c<style>\r\n\t#contenedor{\r\n\t\tposition: relative;\r\n\t\tleft: 20%;\r\n\t\tpadding: 90px \r\n\r\n\t\t\r\n\t}\r\n</style>\r\n{{extend \'layout2.html\'}}\r\n{{block header}}\r\n    \r\n{{end}}\r\n<div class="contenedor" id="contenedor">\r\n\r\n<div class="row animated fadeInRightBig" align: center>\r\n\t<div class="conte"></div>\r\n\r\n  <div class="col-lg-2">\r\n    <div class="widget style1 navy-bg">\r\n      <div class="row vertical-align">\r\n        <div class="col-2">\r\n          <i class="fa fa-file"></i>\r\n        \r\n        </div>\r\n        <div class="col-10 text-right">\r\n\r\n          <h5 class="font-bold"><a href="{{=URL(c=\'criminalistica\',f=\'inscripciones\')}}" style="color: #FFF">INSCRIPCION AL CONGRESO</a></h5>\r\n        </div>\r\n      </div>\r\n    </div>\r\n  </div>\r\n  <div class="col-lg-2">\r\n    <div class="widget style1 red-bg">\r\n      <div class="row vertical-align">\r\n        <div class="col-2">\r\n          <i class="fa fa-address-card" aria-hidden="true"></i>\r\n        </div>\r\n        <div class="col-10 text-right">\r\n          <h5 class="font-bold"><a href="{{=URL(c=\'archivo\',f=\'form_archivo\')}}" style="color: #FFF">INSCRIPCION A JORNADAS TALLER</a></h5>\r\n        </div>\r\n      </div>\r\n    </div>\r\n  </div>\r\n  </div>\r\n\r\n\r\n</div>\r\n<style>\t\r\n\t\t#parrafo{ \r\n               font-size: 14pt;\r\n\t\t\ttext-align: justify;\r\n\t\t\tfont-style: italic;\r\n\t\t}\r\n\t\t#titulo{\r\n               font-size: 25pt;\r\n\t\t\ttext-align: center;\r\n\t\t}\r\n\r\n          \r\n         \r\nhtml\t\t\r\n\r\n</style>\r\n<body>\r\n\r\n{{extend \'layout_inscripcion.html\'}}\r\n{{block header}}\r\n    \r\n{{end}}\r\n\r\n\r\n\r\n     \r\n <div class="ibox-content" id="conten">\r\n     <div class="row">\r\n          <div class="col-lg-12"><br><br> \r\n          <h3 class="m-t-lg d-none d-sm-block" id="titulo">\xe2\x80\x9cCasu\xc3\xadstica criminal e interpretaci\xc3\xb3n de indicios <br>en la escena del crimen-casos reales\xe2\x80\x9d</h3>  \r\n          <p ><strong></strong></p>\r\n          </div> \r\n          <div class=" col-lg-12d-block d-sm-block d-md-none" id="titulo"><h3>\xe2\x80\x9cCAUSUISTICA CRIMINAL E INTERPRETACION DE INDICIOS <br>EN LA ESCENA DEL CRIMEN - CASOS REALES\xe2\x80\x9d<h3> </div>\r\n     </div> \r\n     <div class="row">  \r\n     \r\n     \t<div class="col-lg-2"><br><br>\r\n     \t \r\n\r\n     \t</div>\r\n     \t<div class="col-lg-8"><br><br>   \t                                   \r\n                                 \r\n                                      \r\n\t\t\t\t\r\n\t\t\t<p id="parrafo" >\r\n\r\n\t\t\t\tEl evento se desarrollara los d\xc3\xadas 05, 06 y 07  de Septiembre del corriente a\xc3\xb1o, en la ciudad de San Fernando del Valle de Catamarca, Rep\xc3\xbablica Argentina, el mismo \t\t\tcontar\xc3\xa1 con dos jornadas de doble turno a realizarse el Sal\xc3\xb3n Auditorium del Hospital San Juan Bautista y un taller optativo de Bal\xc3\xadstica,  Papiloscop\xc3\xada y Accidnetolog\xc3\xada \t\t\tVial con cupos limitados solo para aquellos concurrentes que deseen hacerlo. <br> Las Inscripciones se realizaran v\xc3\xada Pagina Web y su pago ser\xc3\xa1 realizado en forma personal en \t\t\tbase de la Divisi\xc3\xb3n Criminal\xc3\xadstica sito en B\xc2\xba 920 v.v. Torre \xe2\x80\x9cL\xe2\x80\x9d  2do. Piso.</p>\r\n               <p id="parrafo">\r\n                    El costo para todos los cursantes es de 600 pesos hasta el d\xc3\xada 20 de Agosto, y de 800 \t\t\tpesos hasta el d\xc3\xada del evento. Quedando asegurado el lugar solo luego del pago correspondiente ya que el cupo es de 300 personas; en tanto que para los talleres tendr\xc3\xa1 un \t\t\tcosto adicional de 200 pesos, pudiendo participar aquellas personas que hayan desarrollado previamente el curso.  Los lugares a desarrollar los talleres ser\xc3\xa1n el Predio \t\t\tFerial, Pol\xc3\xadgono de Tiro de la Divisi\xc3\xb3n Canes de la Polic\xc3\xada de Catamarca y Base de Divisi\xc3\xb3n Criminal\xc3\xadstica.-\r\n\t\t\r\n\t\t\t</p>\r\n\t\t</div>\r\n\t</div>\t\r\n\t<div class="row">  \r\n     \t<div class="col-lg-5"><br><br>\r\n     \t \r\n\r\n     \t</div>\r\n     \t<div class="col-lg-5"><br><br> \r\n     \t\t<a class="btn btn-danger btn-rounded btn-outline" href="{{=URL(c=\'criminalistica\',f=\'inscripciones\')}}"> Inscripciones</a>\r\n     \t</div>\r\n    </div> \t\r\n     \t\t\t\t\t\r\n\r\n</div>\t\t\r\n </body>'
p7
sS'snapshot'
p8
(dp9
S'exception'
p10
(dp11
S'__getslice__'
p12
S"<method-wrapper '__getslice__' of exceptions.IOError object>"
p13
sS'__str__'
p14
S"<method-wrapper '__str__' of exceptions.IOError object>"
p15
sS'__reduce__'
p16
S'<built-in method __reduce__ of exceptions.IOError object>'
p17
sS'__dict__'
p18
S'{}'
p19
sS'__sizeof__'
p20
S'<built-in method __sizeof__ of exceptions.IOError object>'
p21
sS'__init__'
p22
S"<method-wrapper '__init__' of exceptions.IOError object>"
p23
sS'__setattr__'
p24
S"<method-wrapper '__setattr__' of exceptions.IOError object>"
p25
sS'__reduce_ex__'
p26
S'<built-in method __reduce_ex__ of exceptions.IOError object>'
p27
sS'__new__'
p28
S'<built-in method __new__ of type object>'
p29
sS'errno'
p30
S'2'
sS'__format__'
p31
S'<built-in method __format__ of exceptions.IOError object>'
p32
sS'__class__'
p33
S"<type 'exceptions.IOError'>"
p34
sS'filename'
p35
S"r'D:\\BACKUP\\web2pyVersion2.14.6\\applications\\esc_legajos\\views\\layout_inscripcion.html'"
p36
sS'__doc__'
p37
S"'I/O operation failed.'"
p38
sS'__getitem__'
p39
S"<method-wrapper '__getitem__' of exceptions.IOError object>"
p40
sS'__setstate__'
p41
S'<built-in method __setstate__ of exceptions.IOError object>'
p42
sS'__getattribute__'
p43
S"<method-wrapper '__getattribute__' of exceptions.IOError object>"
p44
sS'args'
p45
S"(2, 'No such file or directory')"
p46
sS'__subclasshook__'
p47
S'<built-in method __subclasshook__ of type object>'
p48
sS'__unicode__'
p49
S'<built-in method __unicode__ of exceptions.IOError object>'
p50
sS'strerror'
p51
S"'No such file or directory'"
p52
sS'__delattr__'
p53
S"<method-wrapper '__delattr__' of exceptions.IOError object>"
p54
sS'__repr__'
p55
S"<method-wrapper '__repr__' of exceptions.IOError object>"
p56
sS'__hash__'
p57
S"<method-wrapper '__hash__' of exceptions.IOError object>"
p58
ssS'evalue'
p59
S"[Errno 2] No such file or directory: 'D:\\\\BACKUP\\\\web2pyVersion2.14.6\\\\applications\\\\esc_legajos\\\\views\\\\layout_inscripcion.html'"
p60
sS'frames'
p61
(lp62
(dp63
S'file'
p64
S'D:\\BACKUP\\web2pyVersion2.14.6\\gluon\\template.py'
p65
sS'dump'
p66
(dp67
S'builtinopen'
p68
S'<built-in function open>'
p69
sS'fileobj'
p70
S'undefined'
p71
sS'filepath'
p72
S"r'D:\\BACKUP\\web2pyVersion2.14.6\\applications\\esc_legajos\\views\\layout_inscripcion.html'"
p73
ssS'lnum'
p74
I450
sS'lines'
p75
(dp76
I448
S'        # try to read the text.'
p77
sI449
S'        try:'
p78
sI450
S"            fileobj = open(filepath, 'rb')"
p79
sI451
S'            text = fileobj.read()'
p80
sI452
S'            fileobj.close()'
p81
sI453
S'        except IOError:'
p82
sI454
S"            self._raise_error('Unable to open included view file: ' + filepath)"
p83
sI445
S'        # Get the path of the file on the system.'
p84
sI446
S'        filepath = self.path and os.path.join(self.path, filename) or filename'
p85
sI447
S''
ssS'call'
p86
S"(self=<gluon.template.TemplateParser object>, filename='layout_inscripcion.html')"
p87
sS'func'
p88
S'_get_file_text'
p89
sasS'pyver'
p90
S'Python 2.7.9: D:\\BACKUP\\web2pyVersion2.14.6\\web2py.exe (prefix: )'
p91
sS'etype'
p92
S"<type 'exceptions.IOError'>"
p93
sS'date'
p94
S'Wed Mar 25 20:05:45 2020'
p95
sS'locals'
p96
(dp97
S'self'
p98
S'<gluon.template.TemplateParser object>'
p99
sS'filepath'
p100
S"r'D:\\BACKUP\\web2pyVersion2.14.6\\applications\\esc_legajos\\views\\layout_inscripcion.html'"
p101
sS'context'
p102
S"{'A': <class 'gluon.html.A'>, 'ANY_OF': <class 'gluon.validators.ANY_OF'>, 'ASSIGNJS': <function ASSIGNJS>, 'AppConfig': <function AppConfig>, 'Auth': <class 'gluon.tools.Auth'>, 'B': <class 'gluon.html.B'>, 'BEAUTIFY': <class 'gluon.html.BEAUTIFY'>, 'BODY': <class 'gluon.html.BODY'>, 'BR': <class 'gluon.html.BR'>, 'BUTTON': <class 'gluon.html.BUTTON'>, ...}"
p103
sg35
S"'layout_inscripcion.html'"
p104
sssS'traceback'
p105
S'Traceback (most recent call last):\n  File "D:\\BACKUP\\web2pyVersion2.14.6\\gluon\\template.py", line 450, in _get_file_text\n    fileobj = open(filepath, \'rb\')\nIOError: [Errno 2] No such file or directory: \'D:\\\\BACKUP\\\\web2pyVersion2.14.6\\\\applications\\\\esc_legajos\\\\views\\\\layout_inscripcion.html\'\n'
p106
s.