(dp1
S'output'
p2
S'missing "pass" in view'
p3
sS'layer'
p4
S'ParserContainer'
p5
sS'code'
p6
S'response.write(\'\\r\\n\', escape=False)\nresponse.write(\'<!DOCTYPE html>\\n<html>\\n<script src="\', escape=False)\nresponse.write(URL(\'static\', \'assets/js/swit-alert.js\'))\nresponse.write(\'"></script> \\n<script src="\', escape=False)\nresponse.write(URL(\'static\', \'js/jquery-3.2.1.js\'))\nresponse.write(\'"></script>\\n<script src="\', escape=False)\nresponse.write(URL(\'static\', \'vue.js\'))\nresponse.write(\'"></script>\\n\\n\\n\\n<!-- Mirrored from webapplayers.com/inspinia_admin-v2.8/empty_page.html by HTTrack Website Copier/3.x [XR&CO\\\'2014], Fri, 29 Jun 2018 13:54:48 GMT -->\\n<head>\\n\\n    <meta charset="utf-8">\\n    <meta name="viewport" content="width=device-width, initial-scale=1.0">\\n\\n    <title>Polic\\xc3\\xada de Catamarca | Sistema Escuela de Cadetes </title>\\n\\n    <link href="\', escape=False)\nresponse.write(URL(\'static\', \'assets/css/bootstrap.min.css\'))\nresponse.write(\'" rel="stylesheet">\\n    <link href="\', escape=False)\nresponse.write(URL(\'static\', \'assets/font-awesome/css/font-awesome.css\' ))\nresponse.write(\'" rel="stylesheet">\\n\\n    <link href="\', escape=False)\nresponse.write(URL(\'static\', \'assets/css/plugins/dataTables/datatables.min.css\'))\nresponse.write(\'" rel="stylesheet">\\n\\n    <link href="\', escape=False)\nresponse.write(URL(\'static\', \'assets/css/animate.css\' ))\nresponse.write(\'" rel="stylesheet">\\n    <link href="\', escape=False)\nresponse.write(URL(\'static\', \'assets/css/style.css\' ))\nresponse.write(\'" rel="stylesheet">\\n\\n</head>\\n\\n<body class="">\\n\\n    <div id="wrapper">\\n\\n    <nav class="navbar-default navbar-static-side" role="navigation">\\n        <div class="sidebar-collapse">\\n            <ul class="nav metismenu" id="side-menu">\\n                <li class="nav-header">\\n                    <div class="dropdown profile-element">\\n                        <img alt="image" class="rounded-circle" src="\', escape=False)\nresponse.write(URL(\'static\', \'assets/img/user.png\'))\nresponse.write(\'"/>\\n                        <a data-toggle="dropdown" class="dropdown-toggle" href="#">\\n                            <span class="block m-t-xs font-bold"></span>\\n                            <span class="text-muted text-xs block"> \', escape=False)\nresponse.write(str.upper(auth.user.first_name))\nresponse.write(\'&nbsp;<b class="caret"></b></span>\\n                        </a>\\n                        <ul class="dropdown-menu animated fadeInRight m-t-xs">\\n                            <li><a class="dropdown-item" href="profile.html">\', escape=False)\nresponse.write(str.upper(auth.user.first_name))\nresponse.write(\'</a></li>\\n                            <li><a class="dropdown-item" href="contacts.html">Cambiar Contrase\\xc3\\xb1a</a></li>\\n                            \\n                            <li class="dropdown-divider"></li>\\n                            <li><a class="dropdown-item" href="\', escape=False)\nresponse.write(URL(\'default\', \'user\', args=(\'logout\')))\nresponse.write(\'">Salir</a></li>\\n                        </ul>\\n                    </div>\\n                    <div class="logo-element">\\n                        D4\\n                    </div>\\n                </li>\\n               \\n               \', escape=False)\nif auth.user.Escuela == \'Super\' :\n    response.write(\' \\n                  <li>\\n                        <a href="#"><i class="fa fa-male fa"></i> <span class="nav-label"> Escuela de Cadetes</span><span class="fa arrow"></span></a>\\n                        <ul class="nav nav-second-level collapse">\\n\\n\\n                            <li>\\n                                <a href="#" id="damian"><i class="fa fa-laptop"></i>Nuevo cadete <span class="fa arrow"></span></a>\\n                                <ul class="nav nav-third-level">\\n                                    <li><a href="\', escape=False)\n    response.write(URL(\'nuevo\', \'check\'))\n    response.write(\'">Nuevo Cadete</a></li>\\n                                    \\n                                    \\n                                </ul>\\n                            </li>\\n                            <li><a href="#"><i class="fa fa-folder-open"></i>Certificados medicos<span class="fa arrow"></span></a>\\n                                <ul class="nav nav-third-level">\\n                                    <li><a href="\', escape=False)\n    response.write(URL(\'medica\', \'medica\'))\n    response.write(\'">Certificados medicos</a></li>\\n                                    \\n\\n                                </ul>\\n                            </li>\\n                            \\n                            <li>\\n                                <a href="#"><i class="fa fa-newspaper-o"></i>Sanciones<span class="fa arrow"></span></a>\\n                                <ul class="nav nav-third-level">\\n                                    <li><a href="\', escape=False)\n    response.write(URL(\'sanciones\', \'listado\'))\n    response.write(\'">Sanciones</a></li>\\n                                    \\n                                    \\n\\n                                </ul>\\n                            </li>\\n                            \\n    \\n                            <li>\\n                                <a href="#"><i class="fa fa-newspaper-o"></i>Estadisticas<span class="fa arrow"></span></a>\\n                                <ul class="nav nav-third-level">\\n                                    <li><a href="\', escape=False)\n    response.write(URL(\'estadisticas\', \'menu\'))\n    response.write(\'">Estadisticas</a></li>\\n                                    \\n                                    \\n\\n                                </ul>\\n                            </li>\\n                           \\n\\n                            <li>\\n                                <a href="#"><i class="fa fa-newspaper-o"></i>Usuarios<span class="fa arrow"></span></a>\\n                                <ul class="nav nav-third-level">\\n                                    <li><a href="\', escape=False)\n    response.write(URL(\'usuario\', \'usuario\'))\n    response.write(\'">Usuarios</a></li>\\n                                    \\n                                    \\n\\n                                </ul>\\n                            </li>\\n                            \\n                           \\n                        </ul>\\n                    </li>\\n                \', escape=False)\n    pass\nresponse.write(\'\\n               \\n\\n                \\n\\n                \', escape=False)\nif auth.user.Escuela == \'Super\' or auth.user.Escuela == \'Esc_de_cadetes\':\n    response.write(\'\\n\\n                <li>\\n                        <a href="#"><i class="fa fa-male fa"></i> <span class="nav-label"> Escuela de Cadetes</span><span class="fa arrow"></span></a>\\n                        <ul class="nav nav-second-level collapse">\\n\\n\\n                            <li>\\n                                <a href="#" id="damian"><i class="fa fa-laptop"></i>Nuevo cadete <span class="fa arrow"></span></a>\\n                                <ul class="nav nav-third-level">\\n                                    <li><a href="\', escape=False)\n    response.write(URL(\'nuevo\', \'check\'))\n    response.write(\'">Nuevo Cadete</a></li>\\n                                    \\n                                    \\n                                </ul>\\n                            </li>\\n                            <li><a href="#"><i class="fa fa-folder-open"></i>Certificados medicos<span class="fa arrow"></span></a>\\n                                <ul class="nav nav-third-level">\\n                                    <li><a href="\', escape=False)\n    response.write(URL(\'medica\', \'medica\'))\n    response.write(\'">Certificados medicos</a></li>\\n                                    \\n\\n                                </ul>\\n                            </li>\\n                            \\n                            <li>\\n                                <a href="#"><i class="fa fa-newspaper-o"></i>Sanciones<span class="fa arrow"></span></a>\\n                                <ul class="nav nav-third-level">\\n                                    <li><a href="\', escape=False)\n    response.write(URL(\'sanciones\', \'listado\'))\n    response.write(\'">Sanciones</a></li>\\n                                    \\n                                    \\n\\n                                </ul>\\n                            </li>\\n                            \\n    \\n                            <li>\\n                                <a href="#"><i class="fa fa-newspaper-o"></i>Estadisticas<span class="fa arrow"></span></a>\\n                                <ul class="nav nav-third-level">\\n                                    <li><a href="\', escape=False)\n    response.write(URL(\'estadisticas\', \'menu\'))\n    response.write(\'">Estadisticas</a></li>\\n                                    \\n                                    \\n\\n                                </ul>\\n                            </li>\\n                           \\n\\n                            <li>\\n                                <a href="#"><i class="fa fa-newspaper-o"></i>Usuarios<span class="fa arrow"></span></a>\\n                                <ul class="nav nav-third-level">\\n                                    <li><a href="\', escape=False)\n    response.write(URL(\'usuario\', \'usuario\'))\n    response.write(\'">Usuarios</a></li>\\n                                    \\n                                    \\n\\n                                </ul>\\n                            </li>\\n                            \\n                           \\n                        </ul>\\n                    </li>\\n                \', escape=False)\n    pass\nresponse.write(\'\\n\\n            </ul>\\n\\n        </div>\\n    </nav>\\n\\n        <div id="page-wrapper" class="gray-bg">\\n        <div class="row border-bottom">\\n        <nav class="navbar navbar-static-top  " role="navigation" style="margin-bottom: 0">\\n\\n        <div class="navbar-header">\\n         <!--   <a class="navbar-minimalize minimalize-styl-2 btn btn-primary " href="#"><i class="fa fa-bars"></i> </a> -->\\n           \\n        </div> \\n\\n            <ul class="nav navbar-top-links navbar-right ">\\n              \\n\\n                <li>\\n                    <a href="\', escape=False)\nresponse.write(URL(\'default\', \'user\', args=(\'logout\')))\nresponse.write(\'">\\n                        <i class="fa fa-sign-out "></i> Cerrar Sesi\\xc3\\xb3n\\n                    </a>\\n                </li>\\n            </ul>\\n\\n        </nav>\\n        </div>\\n            <div class="row wrapper border-bottom white-bg page-heading">\\n                <div class="col-sm-12">\\n                    \', escape=False)\nresponse.write(\'\\r\\n    \\r\\n\', escape=False)\nresponse.write(\'\\n\\n                   \\n                </div>\\n                \\n            </div>\\n\\n\\n            <div class="wrapper wrapper-content">\\n               \', escape=False)\nresponse.write(\'\\r\\n\', escape=False)\nresponse.write(\'\\r\\n\\r\\n<style>\\r\\n\\t\\r\\n\\t#aceptar{\\r\\n\\t\\tbackground: #d24040;\\r\\n\\t\\tcolor:white;\\t\\r\\n\\r\\n\\t}\\r\\n\\t#icono2{\\r\\n\\t\\tbackground: #d24040;\\r\\n\\r\\n\\t}\\r\\n\\t#icono1{\\r\\n\\t\\tbackground: #d24040;\\r\\n\\r\\n\\t}\\r\\n\\t#icono4{\\r\\n\\t\\tborder-color: #d24040;\\r\\n\\r\\n\\t}\\r\\n\\t#icono3{\\r\\n\\t\\r\\n\\t\\r\\n    border-color: #e63e13;}\\r\\n\\r\\n\\r\\n</style>\\r\\n\\t\', escape=False)\nresponse.write(\'\\r\\n\\t\', escape=False)\nresponse.write(\'\\r\\n\\r\\n\\r\\n\', escape=False)\nfor x in set_medicas:\n    response.write(\'\\r\\n\\t\', escape=False)\n    tomo_id=x.id\n    response.write(\'\\t\\t\\t<!--tomo el id del registo-->\\r\\n\\r\\n\\t\', escape=False)\n    comp_anio= x.fecha.year\n    response.write(\'  <!--fecha del a\\xc3\\xb1o del regisro-->\\r\\n\\r\\n\\t\', escape=False)\n    comp_mes= x.fecha.month\n    response.write(\' <!--fecha del mes del regisro-->\\r\\n\\t\', escape=False)\n    if hoy_anio == comp_anio:\n        response.write(\' <!--pregunto si el a\\xc3\\xb1o es el del a\\xc3\\xb1o actual-->\\r\\n\\t\\t\', escape=False)\n        response.write("si")\n        response.write(\'\\r\\n\\t\\t\', escape=False)\n        dias=int(x.reposo)\n        response.write(\' <!-- paso a enteros-->\\r\\n\\t\\t\', escape=False)\n        cna=dias + cna\n        response.write(\' <!-- acumulador de notas medicas en el a\\xc3\\xb1o-->\\r\\n\\r\\n\\t\\t\', escape=False)\n        if x.t_reposo== "ABSOLUTO" :\n            response.write(\'          <!--pregunto si la nota es absoluta -->\\r\\n\\t\\t\\t\', escape=False)\n            abs_a=dias+abs_a\n            response.write(\'  <!--acumula las notas medicas de reposo absoluto del a\\xc3\\xb1o-->\\r\\n\\t\\t\\r\\n\\t\\t\\t\', escape=False)\n            response.write("absoluto")\n            response.write(\'\\r\\n\\r\\n\\t\\t\\t\', escape=False)\n        else:\n            response.write(\'\\r\\n\\t\\t\\t\', escape=False)\n            rl_a=dias+rl_a\n            response.write(\'\\r\\n\\t\\t\\t\', escape=False)\n            response.write("RELATIVO")\n            response.write(\'\\r\\n\\r\\n\\t\\t\', escape=False)\n            pass\n        response.write(\'\\r\\n\\r\\n\\t\', escape=False)\n        if hoy_mes == comp_mes :\n            response.write(\' <!-- pregunto si el registro corresponde al ultimo mes-->\\t\\r\\n\\r\\n\\t\', escape=False)\n            "si"\n            response.write(\'\\r\\n\\r\\n\\t\', escape=False)\n            pass\n        response.write(\'\\t\\r\\n\\t\\t\\r\\n\', escape=False)\n        pass\n    response.write(\'\\t\\r\\n\\r\\n\', escape=False)\n    response.write(set_medicas)\n    response.write(\'\\r\\n\', escape=False)\n    response.write(hoy_anio)\n    response.write(\'\\r\\n\', escape=False)\n    response.write(comp_anio)\n    response.write(\'\\r\\n\', escape=False)\n    response.write(cna)\n    response.write(\'\\r\\n\\r\\n\\r\\n\', escape=False)\n    response.write(arl_a)\n    response.write(\'\\r\\n\\r\\n\\r\\n\\r\\n\\r\\n\\r\\n\\r\\n\\r\\n\\r\\n\\r\\n\\r\\n\', escape=False)\n    response.write(\'\\n            </div>\\n            <div class="footer">\\n                <div class="float-right">\\n                    <strong>Copyright</strong> Div. Inform\\xc3\\xa1tica Dpto. Investigaciones Judiciales D-5 <strong>&copy;</strong> 2019\\n                </div>\\n                \\n            </div>\\n\\n        </div>\\n        </div>\\n\\n    <!-- Mainly scripts -->\\n    \\n    \\n    <script src="\', escape=False)\n    response.write(URL(\'static\', \'assets/js/popper.min.js\'))\n    response.write(\'"></script>\\n    <script src="\', escape=False)\n    response.write(URL(\'static\', \'assets/js/bootstrap.js\'))\n    response.write(\'"></script>\\n    <script src="\', escape=False)\n    response.write(URL(\'static\', \'assets/js/plugins/metisMenu/jquery.metisMenu.js\'))\n    response.write(\'"></script>\\n    <script src="\', escape=False)\n    response.write(URL(\'static\', \'assets/js/plugins/slimscroll_DA_PROBLEMAS/jquery.slimscroll.min.js\'))\n    response.write(\'"></script>\\n\\n    <script src="\', escape=False)\n    response.write(URL(\'static\', \'assets/js/plugins/dataTables/datatables.min.js\'))\n    response.write(\'"></script>\\n    <script src="\', escape=False)\n    response.write(URL(\'static\', \'assets/js/plugins/dataTables/dataTables.bootstrap4.min.js\'))\n    response.write(\'"></script>\\n\\n    <!-- Custom and plugin javascript -->\\n    <script src="\', escape=False)\n    response.write(URL(\'static\', \'assets/js/inspinia.js\'))\n    response.write(\'"></script>\\n    <script src="\', escape=False)\n    response.write(URL(\'static\', \'assets/js/plugins/pace/pace.min.js\'))\n    response.write(\'"></script>\\n    <script src="\', escape=False)\n    response.write(URL(\'static\', \'assets/js/plugins/typehead/bootstrap3-typeahead.min.js\'))\n    response.write(\'"></script>\\n    \\n\\n\\n   \\n\\n</body>\\n\\n\\n<!-- Mirrored from webapplayers.com/inspinia_admin-v2.8/empty_page.html by HTTrack Website Copier/3.x [XR&CO\\\'2014], Fri, 29 Jun 2018 13:54:48 GMT -->\\n</html>\\n\', escape=False)'
p7
sS'snapshot'
p8
(dp9
S'exception'
p10
(dp11
S'__module__'
p12
S"'gluon.rocket'"
p13
sS'__getslice__'
p14
S"<method-wrapper '__getslice__' of SocketTimeout object>"
p15
sS'__str__'
p16
S"<method-wrapper '__str__' of SocketTimeout object>"
p17
sS'__reduce__'
p18
S'<built-in method __reduce__ of SocketTimeout object>'
p19
sS'__dict__'
p20
S'{}'
p21
sS'__sizeof__'
p22
S'<built-in method __sizeof__ of SocketTimeout object>'
p23
sS'__weakref__'
p24
S'None'
p25
sS'__init__'
p26
S"<method-wrapper '__init__' of SocketTimeout object>"
p27
sS'__setattr__'
p28
S"<method-wrapper '__setattr__' of SocketTimeout object>"
p29
sS'__reduce_ex__'
p30
S'<built-in method __reduce_ex__ of SocketTimeout object>'
p31
sS'__new__'
p32
S'<built-in method __new__ of type object>'
p33
sS'__format__'
p34
S'<built-in method __format__ of SocketTimeout object>'
p35
sS'__class__'
p36
S"<class 'gluon.rocket.SocketTimeout'>"
p37
sS'__doc__'
p38
S"'Exception for when a socket times out between requests.'"
p39
sS'__getitem__'
p40
S"<method-wrapper '__getitem__' of SocketTimeout object>"
p41
sS'__setstate__'
p42
S'<built-in method __setstate__ of SocketTimeout object>'
p43
sS'__getattribute__'
p44
S"<method-wrapper '__getattribute__' of SocketTimeout object>"
p45
sS'args'
p46
S"('Socket timed out before request.',)"
p47
sS'__subclasshook__'
p48
S'<built-in method __subclasshook__ of type object>'
p49
sS'__unicode__'
p50
S'<built-in method __unicode__ of SocketTimeout object>'
p51
sS'__delattr__'
p52
S"<method-wrapper '__delattr__' of SocketTimeout object>"
p53
sS'__repr__'
p54
S"<method-wrapper '__repr__' of SocketTimeout object>"
p55
sS'__hash__'
p56
S"<method-wrapper '__hash__' of SocketTimeout object>"
p57
ssS'evalue'
p58
S'Socket timed out before request.'
p59
sS'frames'
p60
(lp61
(dp62
S'file'
p63
S'D:\\BACKUP\\web2pyVersion2.14.6\\gluon\\rocket.py'
p64
sS'dump'
p65
(dp66
S'self'
p67
S'<WSGIWorker(Thread-12, started daemon 5100)>'
p68
sS'conn'
p69
S'<gluon.rocket.Connection object>'
p70
sS'self.run_app'
p71
S'<bound method WSGIWorker.run_app of <WSGIWorker(Thread-12, started daemon 5100)>>'
p72
ssS'lnum'
p73
I1337
sS'lines'
p74
(dp75
I1332
S'            # Enter connection serve loop'
p76
sI1333
S'            while True:'
p77
sI1334
S'                if __debug__:'
p78
sI1335
S"                    self.err_log.debug('Serving a request')"
p79
sI1336
S'                try:'
p80
sI1337
S'                    self.run_app(conn)'
p81
sI1338
S'                except:'
p82
sI1339
S'                    exc = sys.exc_info()'
p83
sI1340
S'                    handled = self._handleError(*exc)'
p84
sI1341
S'                    if handled:'
p85
ssS'call'
p86
S'(self=<WSGIWorker(Thread-12, started daemon 5100)>)'
p87
sS'func'
p88
S'run'
p89
sa(dp90
g63
S'D:\\BACKUP\\web2pyVersion2.14.6\\gluon\\rocket.py'
p91
sg65
(dp92
S'self'
p93
S'<WSGIWorker(Thread-12, started daemon 5100)>'
p94
sS'self.environ'
p95
S"{'HTTP_ACCEPT': 'text/html,application/xhtml+xml,application/xml;...,*/*;q=0.8,application/signed-exchange;v=b3;q=0.9', 'HTTP_ACCEPT_ENCODING': 'gzip, deflate, br', 'HTTP_ACCEPT_LANGUAGE': 'es-ES,es;q=0.9', 'HTTP_CACHE_CONTROL': 'max-age=0', 'HTTP_CONNECTION': 'keep-alive', 'HTTP_COOKIE': 'session_id_admin=127.0.0.1-d1fe462a-d5bf-4bdb-a6...es=127.0.0.1-5a24c2a6-7f64-48b9-bfd7-267069757419', 'HTTP_HOST': '127.0.0.1:8000', 'HTTP_REFERER': 'http://127.0.0.1:8000/leg_catedes/medica/mostrar/29', 'HTTP_SEC_FETCH_DEST': 'document', 'HTTP_SEC_FETCH_MODE': 'navigate', ...}"
p96
sS'sock_file'
p97
S'<socket._fileobject object>'
p98
sS'environ'
p99
S'undefined'
p100
sS'self.build_environ'
p101
S'<bound method WSGIWorker.build_environ of <WSGIWorker(Thread-12, started daemon 5100)>>'
p102
sS'conn'
p103
S'<gluon.rocket.Connection object>'
p104
ssg73
I1830
sg74
(dp105
I1825
S'        else:'
p106
sI1826
S'            sock_file = conn.makefile(BUF_SIZE)'
p107
sI1827
S''
sI1828
S'        try:'
p108
sI1829
S'            # Read the headers and build our WSGI environment'
p109
sI1830
S'            self.environ = environ = self.build_environ(sock_file, conn)'
p110
sI1831
S''
sI1832
S'            # Handle 100 Continue'
p111
sI1833
S"            if environ.get('HTTP_EXPECT', '') == '100-continue':"
p112
sI1834
S"                res = environ['SERVER_PROTOCOL'] + ' 100 Continue\\r\\n\\r\\n'"
p113
ssg86
S'(self=<WSGIWorker(Thread-12, started daemon 5100)>, conn=<gluon.rocket.Connection object>)'
p114
sg88
S'run_app'
p115
sa(dp116
g63
S'D:\\BACKUP\\web2pyVersion2.14.6\\gluon\\rocket.py'
p117
sg65
(dp118
S'sock_file'
p119
S'<socket._fileobject object>'
p120
sS'self.read_request_line'
p121
S'<bound method WSGIWorker.read_request_line of <WSGIWorker(Thread-12, started daemon 5100)>>'
p122
sS'self'
p123
S'<WSGIWorker(Thread-12, started daemon 5100)>'
p124
sS'request'
p125
g100
ssg73
I1650
sg74
(dp126
I1645
S'                                      "wsgiorg.futures": executor.futures})'
p127
sI1646
S''
sI1647
S'    def build_environ(self, sock_file, conn):'
p128
sI1648
S'        """ Build the execution environment. """'
p129
sI1649
S'        # Grab the request line'
p130
sI1650
S'        request = self.read_request_line(sock_file)'
p131
sI1651
S''
sI1652
S'        # Copy the Base Environment'
p132
sI1653
S'        environ = self.base_environ.copy()'
p133
sI1654
S''
ssg86
S'(self=<WSGIWorker(Thread-12, started daemon 5100)>, sock_file=<socket._fileobject object>, conn=<gluon.rocket.Connection object>)'
p134
sg88
S'build_environ'
p135
sa(dp136
g63
S'D:\\BACKUP\\web2pyVersion2.14.6\\gluon\\rocket.py'
p137
sg65
(dp138
S'global SocketTimeout'
p139
S"<class 'gluon.rocket.SocketTimeout'>"
p140
ssg73
I1401
sg74
(dp141
I1396
S''
sI1397
S'                d = sock_file.readline()'
p142
sI1398
S'                if PY3K:'
p143
sI1399
S"                    d = d.decode('ISO-8859-1')"
p144
sI1400
S'        except socket.timeout:'
p145
sI1401
S"            raise SocketTimeout('Socket timed out before request.')"
p146
sI1402
S'        except TypeError:'
p147
sI1403
S'            raise SocketClosed('
p148
sI1404
S"                'SSL bug caused closure of socket.  See '"
p149
sI1405
S'                \'"https://groups.google.com/d/topic/web2py/P_Gw0JxWzCs".\')'
p150
ssg86
S'(self=<WSGIWorker(Thread-12, started daemon 5100)>, sock_file=<socket._fileobject object>)'
p151
sg88
S'read_request_line'
p152
sasS'pyver'
p153
S'Python 2.7.9: D:\\BACKUP\\web2pyVersion2.14.6\\web2py.exe (prefix: )'
p154
sS'etype'
p155
S"<class 'gluon.rocket.SocketTimeout'>"
p156
sS'date'
p157
S'Thu Jun 18 12:56:12 2020'
p158
sS'locals'
p159
(dp160
S'sock_file'
p161
S'<socket._fileobject object>'
p162
sS'self'
p163
S'<WSGIWorker(Thread-12, started daemon 5100)>'
p164
sssS'traceback'
p165
S'Traceback (most recent call last):\n  File "D:\\BACKUP\\web2pyVersion2.14.6\\gluon\\rocket.py", line 1337, in run\n    self.run_app(conn)\n  File "D:\\BACKUP\\web2pyVersion2.14.6\\gluon\\rocket.py", line 1830, in run_app\n    self.environ = environ = self.build_environ(sock_file, conn)\n  File "D:\\BACKUP\\web2pyVersion2.14.6\\gluon\\rocket.py", line 1650, in build_environ\n    request = self.read_request_line(sock_file)\n  File "D:\\BACKUP\\web2pyVersion2.14.6\\gluon\\rocket.py", line 1401, in read_request_line\n    raise SocketTimeout(\'Socket timed out before request.\')\nSocketTimeout: Socket timed out before request.\n'
p166
s.