(dp1
S'output'
p2
S"<type 'exceptions.AttributeError'> 'NoneType' object has no attribute 'first_name'"
p3
sS'layer'
p4
S'E:\\web2py\\applications\\leg_catedes\\views\\medica/ingreso.html'
p5
sS'code'
p6
S'response.write(\'<style>\\r\\n    .btn-info{\\r\\n       background-color: #2f4050;\\r\\n    }\\r\\n    #g_fecha_c__error{color:#f3f3f4;\\r\\n        font-size:14px;background: red;}\\r\\n    #reposo__error{color:#f3f3f4;\\r\\n        font-size:14px;background: red;}\\r\\n    #fecha__error{color:#f3f3f4;\\r\\n        font-size:14px;background: red;}\\r\\n    #dni__error{color:#f3f3f4;\\r\\n        font-size:14px;background: red;}\\r\\n    #cuil__error{color:#f3f3f4;\\r\\n        font-size:14px;background: red;} \\r\\n    #apellido__error{color:#f3f3f4;\\r\\n        font-size:14px;background: red;}  \\r\\n    #nombre__error{color:#f3f3f4;\\r\\n        font-size:14px;background: red;}\\r\\n    #f_nacimiento__error{color:#f3f3f4;\\r\\n        font-size:14px;background: red;}\\r\\n    #f_ingreso__error{color:#f3f3f4;\\r\\n        font-size:14px;background: red;} \\r\\n    \\r\\n\\r\\n</style>\\r\\n\\r\\n\', escape=False)\nresponse.write(\'<!DOCTYPE html>\\r\\n<html>\\r\\n<script src="\', escape=False)\nresponse.write(URL(\'static\', \'assets/js/swit-alert.js\'))\nresponse.write(\'"></script> \\r\\n<script src="\', escape=False)\nresponse.write(URL(\'static\', \'js/jquery-3.2.1.js\'))\nresponse.write(\'"></script>\\r\\n\\r\\n\\r\\n<!-- Mirrored from webapplayers.com/inspinia_admin-v2.8/empty_page.html by HTTrack Website Copier/3.x [XR&CO\\\'2014], Fri, 29 Jun 2018 13:54:48 GMT -->\\r\\n<head>\\r\\n\\r\\n    <meta charset="utf-8">\\r\\n    <meta name="viewport" content="width=device-width, initial-scale=1.0">\\r\\n\\r\\n    <title>Polic\\xc3\\xada de Catamarca | Sistema Escuela de Cadetes </title>\\r\\n\\r\\n    <link href="\', escape=False)\nresponse.write(URL(\'static\', \'assets/css/bootstrap.min.css\'))\nresponse.write(\'" rel="stylesheet">\\r\\n    <link href="\', escape=False)\nresponse.write(URL(\'static\', \'assets/font-awesome/css/font-awesome.css\' ))\nresponse.write(\'" rel="stylesheet">\\r\\n\\r\\n    <link href="\', escape=False)\nresponse.write(URL(\'static\', \'assets/css/plugins/dataTables/datatables.min.css\'))\nresponse.write(\'" rel="stylesheet">\\r\\n\\r\\n    <link href="\', escape=False)\nresponse.write(URL(\'static\', \'assets/css/animate.css\' ))\nresponse.write(\'" rel="stylesheet">\\r\\n    <link href="\', escape=False)\nresponse.write(URL(\'static\', \'assets/css/style.css\' ))\nresponse.write(\'" rel="stylesheet">\\r\\n\\r\\n</head>\\r\\n\\r\\n<body class="">\\r\\n\\r\\n    <div id="wrapper">\\r\\n\\r\\n    <nav class="navbar-default navbar-static-side" role="navigation">\\r\\n        <div class="sidebar-collapse">\\r\\n            <ul class="nav metismenu" id="side-menu">\\r\\n                <li class="nav-header">\\r\\n                    <div class="dropdown profile-element">\\r\\n                        <img alt="image" class="rounded-circle" src="\', escape=False)\nresponse.write(URL(\'static\', \'assets/img/user.png\'))\nresponse.write(\'"/>\\r\\n                        <a data-toggle="dropdown" class="dropdown-toggle" href="#">\\r\\n                            <span class="block m-t-xs font-bold"></span>\\r\\n                            <span class="text-muted text-xs block"> \', escape=False)\nresponse.write(str.upper(auth.user.first_name))\nresponse.write(\'&nbsp;<b class="caret"></b></span>\\r\\n                        </a>\\r\\n                        <ul class="dropdown-menu animated fadeInRight m-t-xs">\\r\\n                            <li><a class="dropdown-item" href="profile.html">\', escape=False)\nresponse.write(str.upper(auth.user.first_name))\nresponse.write(\'</a></li>\\r\\n                            <li><a class="dropdown-item" href="contacts.html">Cambiar Contrase\\xc3\\xb1a</a></li>\\r\\n                            \\r\\n                            <li class="dropdown-divider"></li>\\r\\n                            <li><a class="dropdown-item" href="\', escape=False)\nresponse.write(URL(\'default\', \'user\', args=(\'logout\')))\nresponse.write(\'">Salir</a></li>\\r\\n                        </ul>\\r\\n                    </div>\\r\\n                    <div class="logo-element">\\r\\n                        D4\\r\\n                    </div>\\r\\n                </li>\\r\\n               \\r\\n               \', escape=False)\nif auth.user.oficina == \'Super\' :\n    response.write(\' \\r\\n                <li>\\r\\n                        <a href="#"><i class="fa fa-plus-square-o"></i> <span class="nav-label">Sistema Confeccion </span><span class="fa arrow"></span></a>\\r\\n                        <ul class="nav nav-second-level collapse">\\r\\n\\r\\n\\r\\n                            <li>\\r\\n                                <a href="#" id="damian"><i class="fa fa-laptop"></i>Mesa de entrada <span class="fa arrow"></span></a>\\r\\n                                <ul class="nav nav-third-level">\\r\\n                                    <li><a href="\', escape=False)\n    response.write(URL(\'entrada\', \'ingreso\'))\n    response.write(\'">Generar Solicitud</a></li>\\r\\n                                    <li><a href="\', escape=False)\n    response.write(URL(\'entrada\', \'form_ver_estado\'))\n    response.write(\'">Ver Estado</a></li>                              \\r\\n                                    <li><a href="\', escape=False)\n    response.write(URL(\'entrega\', \'entrega\'))\n    response.write(\'">Entregar certicado</a></li>\\r\\n                                    \\r\\n                                </ul>\\r\\n                            </li>\\r\\n                            <li><a href="#"><i class="fa fa-folder-open"></i>Archivo<span class="fa arrow"></span></a>\\r\\n                                <ul class="nav nav-third-level">\\r\\n                                    <li><a href="\', escape=False)\n    response.write(URL(\'archivo\', \'form_archivo\'))\n    response.write(\'">Archivo</a></li>\\r\\n                                   \\r\\n\\r\\n                                </ul>\\r\\n                            </li>\\r\\n                            \\r\\n                            <li>\\r\\n                                <a href="#"><i class="fa fa-newspaper-o"></i>Confecci\\xc3\\xb2n<span class="fa arrow"></span></a>\\r\\n                                <ul class="nav nav-third-level">\\r\\n                                    <li><a href="\', escape=False)\n    response.write(URL(\'confeccion\', \'por_sistema\'))\n    response.write(\'">Imprimir Ingresados Por Sistema</a></li>\\r\\n                                    <li><a href="\', escape=False)\n    response.write(URL(\'confeccion\', \'modificar_padron\'))\n    response.write(\'">Modificar datos Padron</a></li>\\r\\n                                    <li><a href="\', escape=False)\n    response.write(URL(\'confeccion\', \'reimprimir\'))\n    response.write(\'">Certificados Impresos</a></li>\\r\\n                                    <li><a href="\', escape=False)\n    response.write(URL(\'imprimir\', \'margenes\'))\n    response.write(\'">Configurar margenes</a></li> \\r\\n                                    \\r\\n\\r\\n                                </ul>\\r\\n                            </li>\\r\\n                            \\r\\n                           \\r\\n                            <li>\\r\\n                                <a href="#"><i class="fa fa-user-circle-o"></i>Usuarios<span class="fa arrow"></span></a>\\r\\n                                <ul class="nav nav-third-level">\\r\\n                                    <li><a href="\', escape=False)\n    response.write(URL(\'asesoria\', \'usuario_letrada\'))\n    response.write(\'">Listado</a></li>\\r\\n\\r\\n                                </ul>\\r\\n                            </li>\\r\\n                           \\r\\n                        </ul>\\r\\n                    </li>\\r\\n                \\r\\n                \', escape=False)\n    pass\nresponse.write(\'\\r\\n               \\r\\n                \', escape=False)\nif auth.user.oficina == \'Super\' or auth.user.oficina == \'Confeccion\':\n    response.write(\'\\r\\n                <li>\\r\\n                        <a href="#"><i class="fa fa-plus-square-o"></i> <span class="nav-label">Sistema Confeccion </span><span class="fa arrow"></span></a>\\r\\n                        <ul class="nav nav-second-level collapse">\\r\\n\\r\\n\\r\\n                            <li>\\r\\n                                <a href="#" id="damian"><i class="fa fa-laptop"></i>Mesa de entrada <span class="fa arrow"></span></a>\\r\\n                                <ul class="nav nav-third-level">\\r\\n                                    <li><a href="\', escape=False)\n    response.write(URL(\'entrada\', \'ingreso\'))\n    response.write(\'">Generar Solicitud</a></li>\\r\\n                                    <li><a href="\', escape=False)\n    response.write(URL(\'entrada\', \'form_ver_estado\'))\n    response.write(\'">Ver Estado</a></li>                              \\r\\n                                    <li><a href="\', escape=False)\n    response.write(URL(\'entrega\', \'entrega\'))\n    response.write(\'">Entregar certicado</a></li>\\r\\n                                    \\r\\n                                </ul>\\r\\n                            </li>\\r\\n                            <li><a href="#"><i class="fa fa-folder-open"></i>Archivo<span class="fa arrow"></span></a>\\r\\n                                <ul class="nav nav-third-level">\\r\\n                                    <li><a href="\', escape=False)\n    response.write(URL(\'archivo\', \'form_archivo\'))\n    response.write(\'">Archivo</a></li>\\r\\n                                   \\r\\n\\r\\n                                </ul>\\r\\n                            </li>\\r\\n                            \\r\\n                            <li>\\r\\n                                <a href="#"><i class="fa fa-newspaper-o"></i>Confecci\\xc3\\xb2n<span class="fa arrow"></span></a>\\r\\n                                <ul class="nav nav-third-level">\\r\\n                                    <li><a href="\', escape=False)\n    response.write(URL(\'confeccion\', \'por_sistema\'))\n    response.write(\'">Imprimir ingresados por Sistema</a></li>\\r\\n                                    <li><a href="\', escape=False)\n    response.write(URL(\'confeccion\', \'modificar_padron\'))\n    response.write(\'">Modificar datos Padron</a></li>\\r\\n                                    <li><a href="\', escape=False)\n    response.write(URL(\'confeccion\', \'reimprimir\'))\n    response.write(\'">Certificados Impresos</a></li>\\r\\n                                    <li><a href="\', escape=False)\n    response.write(URL(\'imprimir\', \'margenes\'))\n    response.write(\'">Configurar margenes</a></li> \\r\\n                                    \\r\\n\\r\\n                                </ul>\\r\\n                            </li>\\r\\n                            \\r\\n                           \\r\\n                            \\r\\n                           \\r\\n                        </ul>\\r\\n                    </li>\\r\\n                \', escape=False)\n    pass\nresponse.write(\'\\r\\n\\r\\n            </ul>\\r\\n\\r\\n        </div>\\r\\n    </nav>\\r\\n\\r\\n        <div id="page-wrapper" class="gray-bg">\\r\\n        <div class="row border-bottom">\\r\\n        <nav class="navbar navbar-static-top  " role="navigation" style="margin-bottom: 0">\\r\\n\\r\\n        <div class="navbar-header">\\r\\n         <!--   <a class="navbar-minimalize minimalize-styl-2 btn btn-primary " href="#"><i class="fa fa-bars"></i> </a> -->\\r\\n           \\r\\n        </div> \\r\\n\\r\\n            <ul class="nav navbar-top-links navbar-right ">\\r\\n              \\r\\n\\r\\n                <li>\\r\\n                    <a href="\', escape=False)\nresponse.write(URL(\'default\', \'user\', args=(\'logout\')))\nresponse.write(\'">\\r\\n                        <i class="fa fa-sign-out "></i> Cerrar Sesi\\xc3\\xb3n\\r\\n                    </a>\\r\\n                </li>\\r\\n            </ul>\\r\\n\\r\\n        </nav>\\r\\n        </div>\\r\\n            <div class="row wrapper border-bottom white-bg page-heading">\\r\\n                <div class="col-sm-12">\\r\\n                    \', escape=False)\nresponse.write(\'\\r\\n<h2>Polic\\xc3\\xada de Catamarca | Sistema Escuela de Cadetes</h2>\\r\\n<ol class="breadcrumb">\\r\\n    <li class="breadcrumb-item">\\r\\n        <a href="\', escape=False)\nresponse.write(URL(c=\'default\',f=\'index\'))\nresponse.write(\'">Home</a>\\r\\n    </li>\\r\\n    <li class="breadcrumb-item active">\\r\\n        <strong> Form</strong>\\r\\n    </li>\\r\\n</ol>\\r\\n\', escape=False)\nresponse.write(\'\\r\\n\\r\\n                   \\r\\n                </div>\\r\\n                \\r\\n            </div>\\r\\n\\r\\n\\r\\n            <div class="wrapper wrapper-content">\\r\\n               \', escape=False)\nresponse.write(\'\\r\\n\', escape=False)\nresponse.write(\'\\r\\n<div class="col-lg-24">\\r\\n    <div class="col-lg-12">\\r\\n        <div class="col-lg-12IdProntuarioTipo">\\r\\n            <div class="ibox ">\\r\\n                <div class="ibox-title">\\r\\n                    <h5>Ficha de Ingreso</h5>\\r\\n                    <div class="ibox-tools">\\r\\n                        <a class="collapse-link">\\r\\n                            <i class="fa fa-chevron-up"></i>\\r\\n                        </a>\\r\\n                        \\r\\n                    </div>\\r\\n                </div>\\r\\n                <div class="ibox-content">\\r\\n                    \', escape=False)\nresponse.write(form.custom.begin)\nresponse.write(\'\\r\\n                    <div class="row">\\r\\n                        <div class="col-md-6">\\r\\n                            <div class="form-group">\\r\\n                                <label><strong> Apellido</strong></label>\\r\\n                                <h2>\', escape=False)\nresponse.write(apellido)\nresponse.write(\'</h2>\\r\\n                            </div>\\r\\n                        </div>\\r\\n\\r\\n                        <div class="col-md-6">\\r\\n                            <div class="form-group">\\r\\n                                <label><strong>Nombre</strong></label>\\r\\n                                <h2>\', escape=False)\nresponse.write(nombre)\nresponse.write(\'</h2>\\r\\n                               \\r\\n                            </div>               \\r\\n                                                                    \\r\\n                        </div>           \\r\\n                   \\r\\n                    </div>\\r\\n                    <div class="row">\\r\\n                        <div class="col-md-6">\\r\\n                            <div class="form-group">\\r\\n                                <label><strong>Fecha de la Nota Medica</strong></label>\\r\\n                                \', escape=False)\nform.custom.widget.fecha\nresponse.write(\'\\r\\n                                \', escape=False)\nresponse.write(form.custom.widget.fecha)\nresponse.write(\'\\r\\n                            </div>\\r\\n                        </div>\\r\\n\\r\\n                        <div class="col-md-6">\\r\\n                            <div class="form-group">\\r\\n                                <label><strong>Diagnostico:</strong></label>\\r\\n                                \', escape=False)\nform.custom.widget.diagnostico["_style"] = "text-transform:uppercase"\nresponse.write(\'\\r\\n                                \', escape=False)\nresponse.write(form.custom.widget.diagnostico)\nresponse.write(\'\\r\\n                            </div>        \\r\\n                                                                    \\r\\n                        </div>            \\r\\n                   \\r\\n                    </div>\\r\\n                      <div class="row">\\r\\n                        <div class="col-md-6">\\r\\n                            <div class="form-group">\\r\\n                                <label><strong>Cantidad de dias de reposo:</strong></label>\\r\\n                                \', escape=False)\nform.custom.widget.reposo\nresponse.write(\'\\r\\n                                \', escape=False)\nresponse.write(form.custom.widget.reposo)\nresponse.write(\'\\r\\n                            </div>\\r\\n                        </div>\\r\\n\\r\\n                        <div class="col-md-6">\\r\\n                            <div class="form-group">\\r\\n                                <label><strong>Tipo de Reposo:</strong></label>\\r\\n                               \\r\\n                                \', escape=False)\nform.custom.widget.t_reposo["_style"] = "text-transform:uppercase"\nresponse.write(\'\\r\\n                                 \', escape=False)\nresponse.write(form.custom.widget.t_reposo)\nresponse.write(\'\\r\\n                            </div>            \\r\\n                                                                  \\r\\n                        </div>                   \\r\\n                    </div>\\r\\n                     <div class="row">\\r\\n                        <div class="col-md-6">\\r\\n                            <div class="form-group">\\r\\n                                <label><strong>Medico</strong></label>\\r\\n                                 \', escape=False)\nform.custom.widget.medico["_style"] = "text-transform:uppercase"\nresponse.write(\'\\r\\n                                 \', escape=False)\nresponse.write(form.custom.widget.medico)\nresponse.write(\'\\r\\n                                \\r\\n                            </div>\\r\\n                        </div>\\r\\n\\r\\n                        <div class="col-md-6">\\r\\n                            <div class="form-group">\\r\\n                                <label><strong>Fecha de Cumplimiento:</strong></label>\\r\\n                                \\r\\n                                \', escape=False)\nresponse.write(form.custom.widget.fecha_c)\nresponse.write(\'\\r\\n                            </div>            \\r\\n                                                                  \\r\\n                        </div>                   \\r\\n                    </div>\\r\\n                    \\r\\n                 \\r\\n\\r\\n\\r\\n\\r\\n\\r\\n\\r\\n\\r\\n\\r\\n\\r\\n\\r\\n\\r\\n\\r\\n\\r\\n               \\r\\n\\r\\n              \\r\\n            \\r\\n                \\r\\n                \\r\\n                \\r\\n                <div class="form-group">\\r\\n                    \\r\\n                    \\r\\n                    \\r\\n                    <button type="submit" class="btn btn-info ">Guardar</button>\\r\\n                    \\r\\n                    \\r\\n                    \', escape=False)\nresponse.write(form.custom.end)\nresponse.write(\'\\r\\n                    \\r\\n                </div>\\r\\n            </div>\\r\\n        </div>\\r\\n    </div>\\r\\n    <script>\\r\\n        $(\\\'.typeahead_3\\\').typeahead({\\r\\n    source: [\\r\\n        {"name": "Afghanistan", "code": "AF", "ccn0": "040"},\\r\\n        {"name": "Land Islands", "code": "AX", "ccn0": "050"},\\r\\n        {"name": "Albania", "code": "AL","ccn0": "060"},\\r\\n        {"name": "Algeria", "code": "DZ","ccn0": "070"}\\r\\n    ]\\r\\n}); \\r\\n\\r\\n    </script>\\r\\n\\r\\n \\r\\n\\r\\n\\r\\n\\r\\n\', escape=False)\nresponse.write(\'\\r\\n            </div>\\r\\n            <div class="footer">\\r\\n                <div class="float-right">\\r\\n                    <strong>Copyright</strong> Div. Inform\\xc3\\xa1tica Dpto. Investigaciones Judiciales D-5 <strong>&copy;</strong> 2019\\r\\n                </div>\\r\\n                \\r\\n            </div>\\r\\n\\r\\n        </div>\\r\\n        </div>\\r\\n\\r\\n    <!-- Mainly scripts -->\\r\\n    \\r\\n    \\r\\n    <script src="\', escape=False)\nresponse.write(URL(\'static\', \'assets/js/popper.min.js\'))\nresponse.write(\'"></script>\\r\\n    <script src="\', escape=False)\nresponse.write(URL(\'static\', \'assets/js/bootstrap.js\'))\nresponse.write(\'"></script>\\r\\n    <script src="\', escape=False)\nresponse.write(URL(\'static\', \'assets/js/plugins/metisMenu/jquery.metisMenu.js\'))\nresponse.write(\'"></script>\\r\\n    <script src="\', escape=False)\nresponse.write(URL(\'static\', \'assets/js/plugins/slimscroll_DA_PROBLEMAS/jquery.slimscroll.min.js\'))\nresponse.write(\'"></script>\\r\\n\\r\\n    <script src="\', escape=False)\nresponse.write(URL(\'static\', \'assets/js/plugins/dataTables/datatables.min.js\'))\nresponse.write(\'"></script>\\r\\n    <script src="\', escape=False)\nresponse.write(URL(\'static\', \'assets/js/plugins/dataTables/dataTables.bootstrap4.min.js\'))\nresponse.write(\'"></script>\\r\\n\\r\\n    <!-- Custom and plugin javascript -->\\r\\n    <script src="\', escape=False)\nresponse.write(URL(\'static\', \'assets/js/inspinia.js\'))\nresponse.write(\'"></script>\\r\\n    <script src="\', escape=False)\nresponse.write(URL(\'static\', \'assets/js/plugins/pace/pace.min.js\'))\nresponse.write(\'"></script>\\r\\n    <script src="\', escape=False)\nresponse.write(URL(\'static\', \'assets/js/plugins/typehead/bootstrap3-typeahead.min.js\'))\nresponse.write(\'"></script>\\r\\n    \\r\\n\\r\\n\\r\\n   \\r\\n\\r\\n</body>\\r\\n\\r\\n\\r\\n<!-- Mirrored from webapplayers.com/inspinia_admin-v2.8/empty_page.html by HTTrack Website Copier/3.x [XR&CO\\\'2014], Fri, 29 Jun 2018 13:54:48 GMT -->\\r\\n</html>\\r\\n\', escape=False)'
p7
sS'snapshot'
p8
(dp9
S'exception'
p10
(dp11
S'__hash__'
p12
S"<method-wrapper '__hash__' of exceptions.AttributeError object>"
p13
sS'__setattr__'
p14
S"<method-wrapper '__setattr__' of exceptions.AttributeError object>"
p15
sS'__reduce_ex__'
p16
S'<built-in method __reduce_ex__ of exceptions.AttributeError object>'
p17
sS'__getslice__'
p18
S"<method-wrapper '__getslice__' of exceptions.AttributeError object>"
p19
sS'__getitem__'
p20
S"<method-wrapper '__getitem__' of exceptions.AttributeError object>"
p21
sS'__setstate__'
p22
S'<built-in method __setstate__ of exceptions.AttributeError object>'
p23
sS'__reduce__'
p24
S'<built-in method __reduce__ of exceptions.AttributeError object>'
p25
sS'__str__'
p26
S"<method-wrapper '__str__' of exceptions.AttributeError object>"
p27
sS'__format__'
p28
S'<built-in method __format__ of exceptions.AttributeError object>'
p29
sS'__getattribute__'
p30
S"<method-wrapper '__getattribute__' of exceptions.AttributeError object>"
p31
sS'__class__'
p32
S"<type 'exceptions.AttributeError'>"
p33
sS'__unicode__'
p34
S'<built-in method __unicode__ of exceptions.AttributeError object>'
p35
sS'__delattr__'
p36
S"<method-wrapper '__delattr__' of exceptions.AttributeError object>"
p37
sS'__subclasshook__'
p38
S'<built-in method __subclasshook__ of type object>'
p39
sS'__repr__'
p40
S"<method-wrapper '__repr__' of exceptions.AttributeError object>"
p41
sS'args'
p42
S'("\'NoneType\' object has no attribute \'first_name\'",)'
p43
sS'__dict__'
p44
S'{}'
p45
sS'__sizeof__'
p46
S'<built-in method __sizeof__ of exceptions.AttributeError object>'
p47
sS'__doc__'
p48
S"'Attribute not found.'"
p49
sS'__init__'
p50
S"<method-wrapper '__init__' of exceptions.AttributeError object>"
p51
sS'__new__'
p52
S'<built-in method __new__ of type object>'
p53
ssS'evalue'
p54
S"'NoneType' object has no attribute 'first_name'"
p55
sS'request'
p56
cgluon.html
XML_unpickle
p57
(S's\xd7L\x00\x00<div><table><tr><td style="font-weight:bold;vertical-align:top;">ajax</td><td style="vertical-align:top;">:</td><td><div>False</div></td></tr><tr><td style="font-weight:bold;vertical-align:top;">application</td><td style="vertical-align:top;">:</td><td><div>leg_catedes</div></td></tr><tr><td style="font-weight:bold;vertical-align:top;">args</td><td style="vertical-align:top;">:</td><td><div><table><tr><td><div>29</div></td></tr></table></div></td></tr><tr><td style="font-weight:bold;vertical-align:top;">cid</td><td style="vertical-align:top;">:</td><td><div>None</div></td></tr><tr><td style="font-weight:bold;vertical-align:top;">client</td><td style="vertical-align:top;">:</td><td><div>127.0.0.1</div></td></tr><tr><td style="font-weight:bold;vertical-align:top;">controller</td><td style="vertical-align:top;">:</td><td><div>medica</div></td></tr><tr><td style="font-weight:bold;vertical-align:top;">cookies</td><td style="vertical-align:top;">:</td><td><div><table></table></div></td></tr><tr><td style="font-weight:bold;vertical-align:top;">env</td><td style="vertical-align:top;">:</td><td><div><table><tr><td style="font-weight:bold;vertical-align:top;">HTTP_ACCEPT</td><td style="vertical-align:top;">:</td><td><div>text/html,application/xhtml+xml,application/xml;q=0.9,image/webp,*/*;q=0.8</div></td></tr><tr><td style="font-weight:bold;vertical-align:top;">HTTP_ACCEPT_ENCODING</td><td style="vertical-align:top;">:</td><td><div>gzip, deflate</div></td></tr><tr><td style="font-weight:bold;vertical-align:top;">HTTP_ACCEPT_LANGUAGE</td><td style="vertical-align:top;">:</td><td><div>es-ES,es;q=0.8,en-US;q=0.5,en;q=0.3</div></td></tr><tr><td style="font-weight:bold;vertical-align:top;">HTTP_CACHE_CONTROL</td><td style="vertical-align:top;">:</td><td><div>no-cache</div></td></tr><tr><td style="font-weight:bold;vertical-align:top;">HTTP_CONNECTION</td><td style="vertical-align:top;">:</td><td><div>keep-alive</div></td></tr><tr><td style="font-weight:bold;vertical-align:top;">HTTP_DNT</td><td style="vertical-align:top;">:</td><td><div>1</div></td></tr><tr><td style="font-weight:bold;vertical-align:top;">HTTP_HOST</td><td style="vertical-align:top;">:</td><td><div>127.0.0.1:8000</div></td></tr><tr><td style="font-weight:bold;vertical-align:top;">HTTP_PRAGMA</td><td style="vertical-align:top;">:</td><td><div>no-cache</div></td></tr><tr><td style="font-weight:bold;vertical-align:top;">HTTP_UPGRADE_INSECURE_REQUESTS</td><td style="vertical-align:top;">:</td><td><div>1</div></td></tr><tr><td style="font-weight:bold;vertical-align:top;">HTTP_USER_AGENT</td><td style="vertical-align:top;">:</td><td><div>Mozilla/5.0 (Windows NT 6.1; Win64; x64; rv:74.0) Gecko/20100101 Firefox/74.0</div></td></tr><tr><td style="font-weight:bold;vertical-align:top;">PATH_INFO</td><td style="vertical-align:top;">:</td><td><div>/leg_catedes/medica/ingreso/29</div></td></tr><tr><td style="font-weight:bold;vertical-align:top;">QUERY_STRING</td><td style="vertical-align:top;">:</td><td><div></div></td></tr><tr><td style="font-weight:bold;vertical-align:top;">REMOTE_ADDR</td><td style="vertical-align:top;">:</td><td><div>127.0.0.1</div></td></tr><tr><td style="font-weight:bold;vertical-align:top;">REMOTE_PORT</td><td style="vertical-align:top;">:</td><td><div>63487</div></td></tr><tr><td style="font-weight:bold;vertical-align:top;">REQUEST_METHOD</td><td style="vertical-align:top;">:</td><td><div>GET</div></td></tr><tr><td style="font-weight:bold;vertical-align:top;">SCRIPT_NAME</td><td style="vertical-align:top;">:</td><td><div></div></td></tr><tr><td style="font-weight:bold;vertical-align:top;">SERVER_NAME</td><td style="vertical-align:top;">:</td><td><div>Hatake-PC</div></td></tr><tr><td style="font-weight:bold;vertical-align:top;">SERVER_PORT</td><td style="vertical-align:top;">:</td><td><div>8000</div></td></tr><tr><td style="font-weight:bold;vertical-align:top;">SERVER_PROTOCOL</td><td style="vertical-align:top;">:</td><td><div>HTTP/1.1</div></td></tr><tr><td style="font-weight:bold;vertical-align:top;">SERVER_SOFTWARE</td><td style="vertical-align:top;">:</td><td><div>Rocket 1.2.6</div></td></tr><tr><td style="font-weight:bold;vertical-align:top;">app_folders</td><td style="vertical-align:top;">:</td><td><div>set([&#x27;E:\\\\web2py\\\\applications\\\\leg_catedes\\\\&#x27;, &#x27;E:\\\\web2py\\\\applications\\\\welcome\\\\&#x27;, &#x27;E:\\\\web2py\\\\applications\\\\admin\\\\&#x27;])</div></td></tr><tr><td style="font-weight:bold;vertical-align:top;">applications_parent</td><td style="vertical-align:top;">:</td><td><div>E:\\web2py</div></td></tr><tr><td style="font-weight:bold;vertical-align:top;">cmd_args</td><td style="vertical-align:top;">:</td><td><div><table></table></div></td></tr><tr><td style="font-weight:bold;vertical-align:top;">cmd_options</td><td style="vertical-align:top;">:</td><td><div>&lt;Values at 0x334edf0: {&#x27;verbose&#x27;: False, &#x27;ip&#x27;: &#x27;127.0.0.1&#x27;, &#x27;debuglevel&#x27;: 30, &#x27;with_scheduler&#x27;: False, &#x27;shutdown_timeout&#x27;: 5, &#x27;taskbar&#x27;: False, &#x27;with_coverage&#x27;: False, &#x27;pid_filename&#x27;: &#x27;httpserver.pid&#x27;, &#x27;maxthreads&#x27;: None, &#x27;softcron&#x27;: False, &#x27;server_name&#x27;: &#x27;Hatake-PC&#x27;, &#x27;bpython&#x27;: False, &#x27;nogui&#x27;: False, &#x27;port&#x27;: 8000, &#x27;print_errors&#x27;: False, &#x27;extcron&#x27;: False, &#x27;runcron&#x27;: False, &#x27;run_system_tests&#x27;: False, &#x27;test&#x27;: None, &#x27;folder&#x27;: &#x27;E:\\\\web2py&#x27;, &#x27;config&#x27;: &#x27;&#x27;, &#x27;minthreads&#x27;: None, &#x27;shell&#x27;: None, &#x27;run&#x27;: &#x27;&#x27;, &#x27;log_filename&#x27;: &#x27;httpserver.log&#x27;, &#x27;profiler_dir&#x27;: None, &#x27;args&#x27;: [&#x27;&#x27;], &#x27;socket_timeout&#x27;: 5, &#x27;ssl_ca_certificate&#x27;: None, &#x27;scheduler&#x27;: None, &#x27;interfaces&#x27;: None, &#x27;ssl_private_key&#x27;: &#x27;&#x27;, &#x27;gae&#x27;: None, &#x27;password&#x27;: &#x27;******&#x27;, &#x27;request_queue_size&#x27;: 5, &#x27;ssl_certificate&#x27;: &#x27;&#x27;, &#x27;cronjob&#x27;: False, &#x27;numthreads&#x27;: None, &#x27;quiet&#x27;: False, &#x27;import_models&#x27;: False, &#x27;timeout&#x27;: 10, &#x27;plain&#x27;: False, &#x27;nobanner&#x27;: False}&gt;</div></td></tr><tr><td style="font-weight:bold;vertical-align:top;">db_sessions</td><td style="vertical-align:top;">:</td><td><div>set([])</div></td></tr><tr><td style="font-weight:bold;vertical-align:top;">debugging</td><td style="vertical-align:top;">:</td><td><div>False</div></td></tr><tr><td style="font-weight:bold;vertical-align:top;">gluon_parent</td><td style="vertical-align:top;">:</td><td><div>E:\\web2py</div></td></tr><tr><td style="font-weight:bold;vertical-align:top;">http_accept</td><td style="vertical-align:top;">:</td><td><div>text/html,application/xhtml+xml,application/xml;q=0.9,image/webp,*/*;q=0.8</div></td></tr><tr><td style="font-weight:bold;vertical-align:top;">http_accept_encoding</td><td style="vertical-align:top;">:</td><td><div>gzip, deflate</div></td></tr><tr><td style="font-weight:bold;vertical-align:top;">http_accept_language</td><td style="vertical-align:top;">:</td><td><div>es-ES,es;q=0.8,en-US;q=0.5,en;q=0.3</div></td></tr><tr><td style="font-weight:bold;vertical-align:top;">http_cache_control</td><td style="vertical-align:top;">:</td><td><div>no-cache</div></td></tr><tr><td style="font-weight:bold;vertical-align:top;">http_connection</td><td style="vertical-align:top;">:</td><td><div>keep-alive</div></td></tr><tr><td style="font-weight:bold;vertical-align:top;">http_dnt</td><td style="vertical-align:top;">:</td><td><div>1</div></td></tr><tr><td style="font-weight:bold;vertical-align:top;">http_host</td><td style="vertical-align:top;">:</td><td><div>127.0.0.1:8000</div></td></tr><tr><td style="font-weight:bold;vertical-align:top;">http_pragma</td><td style="vertical-align:top;">:</td><td><div>no-cache</div></td></tr><tr><td style="font-weight:bold;vertical-align:top;">http_upgrade_insecure_requests</td><td style="vertical-align:top;">:</td><td><div>1</div></td></tr><tr><td style="font-weight:bold;vertical-align:top;">http_user_agent</td><td style="vertical-align:top;">:</td><td><div>Mozilla/5.0 (Windows NT 6.1; Win64; x64; rv:74.0) Gecko/20100101 Firefox/74.0</div></td></tr><tr><td style="font-weight:bold;vertical-align:top;">is_jython</td><td style="vertical-align:top;">:</td><td><div>False</div></td></tr><tr><td style="font-weight:bold;vertical-align:top;">is_pypy</td><td style="vertical-align:top;">:</td><td><div>False</div></td></tr><tr><td style="font-weight:bold;vertical-align:top;">is_source</td><td style="vertical-align:top;">:</td><td><div>False</div></td></tr><tr><td style="font-weight:bold;vertical-align:top;">local_hosts</td><td style="vertical-align:top;">:</td><td><div><table><tr><td><div>192.192.20.8</div></td></tr><tr><td><div>2002:c0c0:1408::c0c0:1408</div></td></tr><tr><td><div>Hatake-PC</div></td></tr><tr><td><div>::ffff:127.0.0.1</div></td></tr><tr><td><div>::1</div></td></tr><tr><td><div>Hatake-PC.lan</div></td></tr><tr><td><div>fe80::94ab:efc2:275b:a328%12</div></td></tr><tr><td><div>127.0.0.1</div></td></tr></table></div></td></tr><tr><td style="font-weight:bold;vertical-align:top;">path_info</td><td style="vertical-align:top;">:</td><td><div>/leg_catedes/medica/ingreso/29</div></td></tr><tr><td style="font-weight:bold;vertical-align:top;">query_string</td><td style="vertical-align:top;">:</td><td><div></div></td></tr><tr><td style="font-weight:bold;vertical-align:top;">remote_addr</td><td style="vertical-align:top;">:</td><td><div>127.0.0.1</div></td></tr><tr><td style="font-weight:bold;vertical-align:top;">remote_port</td><td style="vertical-align:top;">:</td><td><div>63487</div></td></tr><tr><td style="font-weight:bold;vertical-align:top;">request_method</td><td style="vertical-align:top;">:</td><td><div>GET</div></td></tr><tr><td style="font-weight:bold;vertical-align:top;">request_uri</td><td style="vertical-align:top;">:</td><td><div>/leg_catedes/medica/ingreso/29</div></td></tr><tr><td style="font-weight:bold;vertical-align:top;">script_name</td><td style="vertical-align:top;">:</td><td><div></div></td></tr><tr><td style="font-weight:bold;vertical-align:top;">server_name</td><td style="vertical-align:top;">:</td><td><div>Hatake-PC</div></td></tr><tr><td style="font-weight:bold;vertical-align:top;">server_port</td><td style="vertical-align:top;">:</td><td><div>8000</div></td></tr><tr><td style="font-weight:bold;vertical-align:top;">server_protocol</td><td style="vertical-align:top;">:</td><td><div>HTTP/1.1</div></td></tr><tr><td style="font-weight:bold;vertical-align:top;">server_software</td><td style="vertical-align:top;">:</td><td><div>Rocket 1.2.6</div></td></tr><tr><td style="font-weight:bold;vertical-align:top;">web2py_path</td><td style="vertical-align:top;">:</td><td><div>E:\\web2py</div></td></tr><tr><td style="font-weight:bold;vertical-align:top;">web2py_version</td><td style="vertical-align:top;">:</td><td><div>2.14.6-stable+timestamp.2016.05.10.00.21.47</div></td></tr><tr><td style="font-weight:bold;vertical-align:top;">wsgi.errors</td><td style="vertical-align:top;">:</td><td><div>&lt;open file &#x27;&lt;stderr&gt;&#x27;, mode &#x27;w&#x27; at 0x01CAD0D0&gt;</div></td></tr><tr><td style="font-weight:bold;vertical-align:top;">wsgi.file_wrapper</td><td style="vertical-align:top;">:</td><td><div>&lt;class wsgiref.util.FileWrapper at 0x03051500&gt;</div></td></tr><tr><td style="font-weight:bold;vertical-align:top;">wsgi.input</td><td style="vertical-align:top;">:</td><td><div>&lt;socket._fileobject object at 0x064B54F0&gt;</div></td></tr><tr><td style="font-weight:bold;vertical-align:top;">wsgi.multiprocess</td><td style="vertical-align:top;">:</td><td><div>False</div></td></tr><tr><td style="font-weight:bold;vertical-align:top;">wsgi.multithread</td><td style="vertical-align:top;">:</td><td><div>True</div></td></tr><tr><td style="font-weight:bold;vertical-align:top;">wsgi.run_once</td><td style="vertical-align:top;">:</td><td><div>False</div></td></tr><tr><td style="font-weight:bold;vertical-align:top;">wsgi.url_scheme</td><td style="vertical-align:top;">:</td><td><div>http</div></td></tr><tr><td style="font-weight:bold;vertical-align:top;">wsgi.version</td><td style="vertical-align:top;">:</td><td><div><table><tr><td><div>1</div></td></tr><tr><td><div>0</div></td></tr></table></div></td></tr><tr><td style="font-weight:bold;vertical-align:top;">wsgi_errors</td><td style="vertical-align:top;">:</td><td><div>&lt;open file &#x27;&lt;stderr&gt;&#x27;, mode &#x27;w&#x27; at 0x01CAD0D0&gt;</div></td></tr><tr><td style="font-weight:bold;vertical-align:top;">wsgi_file_wrapper</td><td style="vertical-align:top;">:</td><td><div>&lt;class wsgiref.util.FileWrapper at 0x03051500&gt;</div></td></tr><tr><td style="font-weight:bold;vertical-align:top;">wsgi_input</td><td style="vertical-align:top;">:</td><td><div>&lt;socket._fileobject object at 0x064B54F0&gt;</div></td></tr><tr><td style="font-weight:bold;vertical-align:top;">wsgi_multiprocess</td><td style="vertical-align:top;">:</td><td><div>False</div></td></tr><tr><td style="font-weight:bold;vertical-align:top;">wsgi_multithread</td><td style="vertical-align:top;">:</td><td><div>True</div></td></tr><tr><td style="font-weight:bold;vertical-align:top;">wsgi_run_once</td><td style="vertical-align:top;">:</td><td><div>False</div></td></tr><tr><td style="font-weight:bold;vertical-align:top;">wsgi_url_scheme</td><td style="vertical-align:top;">:</td><td><div>http</div></td></tr><tr><td style="font-weight:bold;vertical-align:top;">wsgi_version</td><td style="vertical-align:top;">:</td><td><div><table><tr><td><div>1</div></td></tr><tr><td><div>0</div></td></tr></table></div></td></tr></table></div></td></tr><tr><td style="font-weight:bold;vertical-align:top;">extension</td><td style="vertical-align:top;">:</td><td><div>html</div></td></tr><tr><td style="font-weight:bold;vertical-align:top;">folder</td><td style="vertical-align:top;">:</td><td><div>E:\\web2py\\applications\\leg_catedes\\</div></td></tr><tr><td style="font-weight:bold;vertical-align:top;">function</td><td style="vertical-align:top;">:</td><td><div>ingreso</div></td></tr><tr><td style="font-weight:bold;vertical-align:top;">global_settings</td><td style="vertical-align:top;">:</td><td><div><table><tr><td style="font-weight:bold;vertical-align:top;">app_folders</td><td style="vertical-align:top;">:</td><td><div>set([&#x27;E:\\\\web2py\\\\applications\\\\leg_catedes\\\\&#x27;, &#x27;E:\\\\web2py\\\\applications\\\\welcome\\\\&#x27;, &#x27;E:\\\\web2py\\\\applications\\\\admin\\\\&#x27;])</div></td></tr><tr><td style="font-weight:bold;vertical-align:top;">applications_parent</td><td style="vertical-align:top;">:</td><td><div>E:\\web2py</div></td></tr><tr><td style="font-weight:bold;vertical-align:top;">cmd_args</td><td style="vertical-align:top;">:</td><td><div><table></table></div></td></tr><tr><td style="font-weight:bold;vertical-align:top;">cmd_options</td><td style="vertical-align:top;">:</td><td><div>&lt;Values at 0x334edf0: {&#x27;verbose&#x27;: False, &#x27;ip&#x27;: &#x27;127.0.0.1&#x27;, &#x27;debuglevel&#x27;: 30, &#x27;with_scheduler&#x27;: False, &#x27;shutdown_timeout&#x27;: 5, &#x27;taskbar&#x27;: False, &#x27;with_coverage&#x27;: False, &#x27;pid_filename&#x27;: &#x27;httpserver.pid&#x27;, &#x27;maxthreads&#x27;: None, &#x27;softcron&#x27;: False, &#x27;server_name&#x27;: &#x27;Hatake-PC&#x27;, &#x27;bpython&#x27;: False, &#x27;nogui&#x27;: False, &#x27;port&#x27;: 8000, &#x27;print_errors&#x27;: False, &#x27;extcron&#x27;: False, &#x27;runcron&#x27;: False, &#x27;run_system_tests&#x27;: False, &#x27;test&#x27;: None, &#x27;folder&#x27;: &#x27;E:\\\\web2py&#x27;, &#x27;config&#x27;: &#x27;&#x27;, &#x27;minthreads&#x27;: None, &#x27;shell&#x27;: None, &#x27;run&#x27;: &#x27;&#x27;, &#x27;log_filename&#x27;: &#x27;httpserver.log&#x27;, &#x27;profiler_dir&#x27;: None, &#x27;args&#x27;: [&#x27;&#x27;], &#x27;socket_timeout&#x27;: 5, &#x27;ssl_ca_certificate&#x27;: None, &#x27;scheduler&#x27;: None, &#x27;interfaces&#x27;: None, &#x27;ssl_private_key&#x27;: &#x27;&#x27;, &#x27;gae&#x27;: None, &#x27;password&#x27;: &#x27;******&#x27;, &#x27;request_queue_size&#x27;: 5, &#x27;ssl_certificate&#x27;: &#x27;&#x27;, &#x27;cronjob&#x27;: False, &#x27;numthreads&#x27;: None, &#x27;quiet&#x27;: False, &#x27;import_models&#x27;: False, &#x27;timeout&#x27;: 10, &#x27;plain&#x27;: False, &#x27;nobanner&#x27;: False}&gt;</div></td></tr><tr><td style="font-weight:bold;vertical-align:top;">db_sessions</td><td style="vertical-align:top;">:</td><td><div>set([])</div></td></tr><tr><td style="font-weight:bold;vertical-align:top;">debugging</td><td style="vertical-align:top;">:</td><td><div>False</div></td></tr><tr><td style="font-weight:bold;vertical-align:top;">gluon_parent</td><td style="vertical-align:top;">:</td><td><div>E:\\web2py</div></td></tr><tr><td style="font-weight:bold;vertical-align:top;">is_jython</td><td style="vertical-align:top;">:</td><td><div>False</div></td></tr><tr><td style="font-weight:bold;vertical-align:top;">is_pypy</td><td style="vertical-align:top;">:</td><td><div>False</div></td></tr><tr><td style="font-weight:bold;vertical-align:top;">is_source</td><td style="vertical-align:top;">:</td><td><div>False</div></td></tr><tr><td style="font-weight:bold;vertical-align:top;">local_hosts</td><td style="vertical-align:top;">:</td><td><div><table><tr><td><div>192.192.20.8</div></td></tr><tr><td><div>2002:c0c0:1408::c0c0:1408</div></td></tr><tr><td><div>Hatake-PC</div></td></tr><tr><td><div>::ffff:127.0.0.1</div></td></tr><tr><td><div>::1</div></td></tr><tr><td><div>Hatake-PC.lan</div></td></tr><tr><td><div>fe80::94ab:efc2:275b:a328%12</div></td></tr><tr><td><div>127.0.0.1</div></td></tr></table></div></td></tr><tr><td style="font-weight:bold;vertical-align:top;">web2py_version</td><td style="vertical-align:top;">:</td><td><div>2.14.6-stable+timestamp.2016.05.10.00.21.47</div></td></tr></table></div></td></tr><tr><td style="font-weight:bold;vertical-align:top;">is_https</td><td style="vertical-align:top;">:</td><td><div>False</div></td></tr><tr><td style="font-weight:bold;vertical-align:top;">is_local</td><td style="vertical-align:top;">:</td><td><div>True</div></td></tr><tr><td style="font-weight:bold;vertical-align:top;">is_restful</td><td style="vertical-align:top;">:</td><td><div>False</div></td></tr><tr><td style="font-weight:bold;vertical-align:top;">is_scheduler</td><td style="vertical-align:top;">:</td><td><div>False</div></td></tr><tr><td style="font-weight:bold;vertical-align:top;">is_shell</td><td style="vertical-align:top;">:</td><td><div>False</div></td></tr><tr><td style="font-weight:bold;vertical-align:top;">now</td><td style="vertical-align:top;">:</td><td><div>datetime.datetime(2020, 3, 28, 10, 5, 18, 4000)</div></td></tr><tr><td style="font-weight:bold;vertical-align:top;">raw_args</td><td style="vertical-align:top;">:</td><td><div>29</div></td></tr><tr><td style="font-weight:bold;vertical-align:top;">raw_extension</td><td style="vertical-align:top;">:</td><td><div>None</div></td></tr><tr><td style="font-weight:bold;vertical-align:top;">url</td><td style="vertical-align:top;">:</td><td><div>/leg_catedes/medica/ingreso/29</div></td></tr><tr><td style="font-weight:bold;vertical-align:top;">utcnow</td><td style="vertical-align:top;">:</td><td><div>datetime.datetime(2020, 3, 28, 13, 5, 18, 4000)</div></td></tr><tr><td style="font-weight:bold;vertical-align:top;">wsgi</td><td style="vertical-align:top;">:</td><td><div>&lt;gluon.main.LazyWSGI object at 0x06087710&gt;</div></td></tr></table></div>'
tRp58
sS'frames'
p59
(lp60
(dp61
S'file'
p62
S'E:\\web2py\\gluon\\restricted.py'
p63
sS'dump'
p64
(dp65
S'environment'
p66
S"{'A': <class 'gluon.html.A'>, 'ANY_OF': <class 'gluon.validators.ANY_OF'>, 'ASSIGNJS': <function ASSIGNJS>, 'AppConfig': <function AppConfig>, 'Auth': <class 'gluon.tools.Auth'>, 'B': <class 'gluon.html.B'>, 'BEAUTIFY': <class 'gluon.html.BEAUTIFY'>, 'BODY': <class 'gluon.html.BODY'>, 'BR': <class 'gluon.html.BR'>, 'BUTTON': <class 'gluon.html.BUTTON'>, ...}"
p67
sS'ccode'
p68
S'<code object <module> at 067E5188, file "E:\\web2...s\\leg_catedes\\views\\medica/ingreso.html", line 1>'
p69
ssS'lnum'
p70
I227
sS'lines'
p71
(dp72
I224
S'            ccode = code'
p73
sI225
S'        else:'
p74
sI226
S'            ccode = compile2(code, layer)'
p75
sI227
S'        exec ccode in environment'
p76
sI228
S'    except HTTP:'
p77
sI229
S'        raise'
p78
sI230
S'    except RestrictedError:'
p79
sI231
S'        # do not encapsulate (obfuscate) the original RestrictedError'
p80
sI222
S'    try:'
p81
sI223
S'        if isinstance(code, types.CodeType):'
p82
ssS'call'
p83
S'(code=r"response.write(\'<style>\\r\\n    .btn-info{\\r\\n   ...8 13:54:48 GMT -->\\r\\n</html>\\r\\n\', escape=False)", environment={\'A\': <class \'gluon.html.A\'>, \'ANY_OF\': <class \'gluon.validators.ANY_OF\'>, \'ASSIGNJS\': <function ASSIGNJS>, \'AppConfig\': <function AppConfig>, \'Auth\': <class \'gluon.tools.Auth\'>, \'B\': <class \'gluon.html.B\'>, \'BEAUTIFY\': <class \'gluon.html.BEAUTIFY\'>, \'BODY\': <class \'gluon.html.BODY\'>, \'BR\': <class \'gluon.html.BR\'>, \'BUTTON\': <class \'gluon.html.BUTTON\'>, ...}, layer=r\'E:\\web2py\\applications\\leg_catedes\\views\\medica/ingreso.html\')'
p84
sS'func'
p85
S'restricted'
p86
sa(dp87
g62
S'E:\\web2py\\applications\\leg_catedes\\views\\medica\\ingreso.html'
p88
sg64
(dp89
S'px'
p90
S'undefined'
p91
sS'font'
p92
g91
sS'red'
p93
g91
sS'background'
p94
g91
sS'size'
p95
g91
ssg70
I19
sg71
(dp96
I10
S'response.write(\'" rel="stylesheet">\\r\\n\\r\\n    <link href="\', escape=False)'
p97
sI11
S"response.write(URL('static', 'assets/css/plugins/dataTables/datatables.min.css'))"
p98
sI12
S'response.write(\'" rel="stylesheet">\\r\\n\\r\\n    <link href="\', escape=False)'
p99
sI13
S"response.write(URL('static', 'assets/css/animate.css' ))"
p100
sI14
S'response.write(\'" rel="stylesheet">\\r\\n    <link href="\', escape=False)'
p101
sI15
S"response.write(URL('static', 'assets/css/style.css' ))"
p102
sI16
S'response.write(\'" rel="stylesheet">\\r\\n\\r\\n</head>\\r\\n\\r\\n<body class="">\\r\\n\\r\\n    <div id="wrapper">\\r\\n\\r\\n    <nav class="navbar-default navbar-static-side" role="navigation">\\r\\n        <div class="sidebar-collapse">\\r\\n            <ul class="nav metismenu" id="side-menu">\\r\\n                <li class="nav-header">\\r\\n                    <div class="dropdown profile-element">\\r\\n                        <img alt="image" class="rounded-circle" src="\', escape=False)'
p103
sI17
S"response.write(URL('static', 'assets/img/user.png'))"
p104
sI18
S'response.write(\'"/>\\r\\n                        <a data-toggle="dropdown" class="dropdown-toggle" href="#">\\r\\n                            <span class="block m-t-xs font-bold"></span>\\r\\n                            <span class="text-muted text-xs block"> \', escape=False)'
p105
sI19
S'response.write(str.upper(auth.user.first_name))'
p106
sI20
S'response.write(\'&nbsp;<b class="caret"></b></span>\\r\\n                        </a>\\r\\n                        <ul class="dropdown-menu animated fadeInRight m-t-xs">\\r\\n                            <li><a class="dropdown-item" href="profile.html">\', escape=False)'
p107
sI21
S'response.write(str.upper(auth.user.first_name))'
p108
sI22
S'response.write(\'</a></li>\\r\\n                            <li><a class="dropdown-item" href="contacts.html">Cambiar Contrase\\xc3\\xb1a</a></li>\\r\\n                            \\r\\n                            <li class="dropdown-divider"></li>\\r\\n                            <li><a class="dropdown-item" href="\', escape=False)'
p109
sI23
S"response.write(URL('default', 'user', args=('logout')))"
p110
sI24
S'response.write(\'">Salir</a></li>\\r\\n                        </ul>\\r\\n                    </div>\\r\\n                    <div class="logo-element">\\r\\n                        D4\\r\\n                    </div>\\r\\n                </li>\\r\\n               \\r\\n               \', escape=False)'
p111
sI25
S"if auth.user.oficina == 'Super' :"
p112
sI26
S'    response.write(\' \\r\\n                <li>\\r\\n                        <a href="#"><i class="fa fa-plus-square-o"></i> <span class="nav-label">Sistema Confeccion </span><span class="fa arrow"></span></a>\\r\\n                        <ul class="nav nav-second-level collapse">\\r\\n\\r\\n\\r\\n                            <li>\\r\\n                                <a href="#" id="damian"><i class="fa fa-laptop"></i>Mesa de entrada <span class="fa arrow"></span></a>\\r\\n                                <ul class="nav nav-third-level">\\r\\n                                    <li><a href="\', escape=False)'
p113
sI27
S"    response.write(URL('entrada', 'ingreso'))"
p114
sI28
S'    response.write(\'">Generar Solicitud</a></li>\\r\\n                                    <li><a href="\', escape=False)'
p115
sI29
S"    response.write(URL('entrada', 'form_ver_estado'))"
p116
ssg83
S'()'
p117
sg85
S'<module>'
p118
sasS'pyver'
p119
S'Python 2.7.9: E:\\web2py\\web2py.exe (prefix: )'
p120
sS'session'
p121
g57
(S's\x1a\x00\x00\x00<div><table></table></div>'
tRp122
sS'etype'
p123
S"<type 'exceptions.AttributeError'>"
p124
sS'date'
p125
S'Sat Mar 28 10:05:18 2020'
p126
sS'response'
p127
g57
(S's\xba>\x00\x00<div><table><tr><td style="font-weight:bold;vertical-align:top;">body</td><td style="vertical-align:top;">:</td><td><div>&lt;cStringIO.StringO object at 0x067E6E20&gt;</div></td></tr><tr><td style="font-weight:bold;vertical-align:top;">cookies</td><td style="vertical-align:top;">:</td><td><div><table><tr><td style="font-weight:bold;vertical-align:top;">session_id_leg_catedes</td><td style="vertical-align:top;">:</td><td><div>127.0.0.1-6db57b64-52fb-4de3-9e33-3cefdbf1ad4d<table><tr><td style="font-weight:bold;vertical-align:top;">comment</td><td style="vertical-align:top;">:</td><td><div></div></td></tr><tr><td style="font-weight:bold;vertical-align:top;">domain</td><td style="vertical-align:top;">:</td><td><div></div></td></tr><tr><td style="font-weight:bold;vertical-align:top;">expires</td><td style="vertical-align:top;">:</td><td><div></div></td></tr><tr><td style="font-weight:bold;vertical-align:top;">httponly</td><td style="vertical-align:top;">:</td><td><div></div></td></tr><tr><td style="font-weight:bold;vertical-align:top;">max-age</td><td style="vertical-align:top;">:</td><td><div></div></td></tr><tr><td style="font-weight:bold;vertical-align:top;">path</td><td style="vertical-align:top;">:</td><td><div>/</div></td></tr><tr><td style="font-weight:bold;vertical-align:top;">secure</td><td style="vertical-align:top;">:</td><td><div></div></td></tr><tr><td style="font-weight:bold;vertical-align:top;">version</td><td style="vertical-align:top;">:</td><td><div></div></td></tr></table></div></td></tr></table></div></td></tr><tr><td style="font-weight:bold;vertical-align:top;">delimiters</td><td style="vertical-align:top;">:</td><td><div><table><tr><td><div>{{</div></td></tr><tr><td><div>}}</div></td></tr></table></div></td></tr><tr><td style="font-weight:bold;vertical-align:top;">files</td><td style="vertical-align:top;">:</td><td><div><table></table></div></td></tr><tr><td style="font-weight:bold;vertical-align:top;">flash</td><td style="vertical-align:top;">:</td><td><div></div></td></tr><tr><td style="font-weight:bold;vertical-align:top;">form_label_separator</td><td style="vertical-align:top;">:</td><td><div></div></td></tr><tr><td style="font-weight:bold;vertical-align:top;">formstyle</td><td style="vertical-align:top;">:</td><td><div>bootstrap3_inline</div></td></tr><tr><td style="font-weight:bold;vertical-align:top;">generic_patterns</td><td style="vertical-align:top;">:</td><td><div><table><tr><td><div>*</div></td></tr></table></div></td></tr><tr><td style="font-weight:bold;vertical-align:top;">google_analytics_id</td><td style="vertical-align:top;">:</td><td><div>None</div></td></tr><tr><td style="font-weight:bold;vertical-align:top;">headers</td><td style="vertical-align:top;">:</td><td><div><table><tr><td style="font-weight:bold;vertical-align:top;">X-Powered-By</td><td style="vertical-align:top;">:</td><td><div>web2py</div></td></tr></table></div></td></tr><tr><td style="font-weight:bold;vertical-align:top;">logo</td><td style="vertical-align:top;">:</td><td><div><a class="navbar-brand" href="http://www.web2py.com/" id="web2py-logo"><b>web<span>2</span>py</b>&trade;&nbsp;</a></div></td></tr><tr><td style="font-weight:bold;vertical-align:top;">menu</td><td style="vertical-align:top;">:</td><td><div><table><tr><td><div><table><tr><td><div>Inicio</div></td></tr><tr><td><div>False</div></td></tr><tr><td><div>/leg_catedes/default/index</div></td></tr><tr><td><div><table></table></div></td></tr></table></div></td></tr><tr><td><div><table><tr><td><div>Mis Sitios</div></td></tr><tr><td><div>False</div></td></tr><tr><td><div>/admin/default/site</div></td></tr></table></div></td></tr><tr><td><div><table><tr><td><div>Esta Aplicaci\xc3\xb3n</div></td></tr><tr><td><div>False</div></td></tr><tr><td><div>#</div></td></tr><tr><td><div><table><tr><td><div><table><tr><td><div>Design</div></td></tr><tr><td><div>False</div></td></tr><tr><td><div>/admin/default/design/leg_catedes</div></td></tr></table></div></td></tr><tr><td><div><li class="divider"></li></div></td></tr><tr><td><div><table><tr><td><div>Controlador</div></td></tr><tr><td><div>False</div></td></tr><tr><td><div>/admin/default/edit/leg_catedes/controllers/medica.py</div></td></tr></table></div></td></tr><tr><td><div><table><tr><td><div>Vista</div></td></tr><tr><td><div>False</div></td></tr><tr><td><div>/admin/default/edit/leg_catedes/views/medica/ingreso.html</div></td></tr></table></div></td></tr><tr><td><div><table><tr><td><div>Modelo BDD</div></td></tr><tr><td><div>False</div></td></tr><tr><td><div>/admin/default/edit/leg_catedes/models/db.py</div></td></tr></table></div></td></tr><tr><td><div><table><tr><td><div>Modelo "menu"</div></td></tr><tr><td><div>False</div></td></tr><tr><td><div>/admin/default/edit/leg_catedes/models/menu.py</div></td></tr></table></div></td></tr><tr><td><div><table><tr><td><div>Config.ini</div></td></tr><tr><td><div>False</div></td></tr><tr><td><div>/admin/default/edit/leg_catedes/private/appconfig.ini</div></td></tr></table></div></td></tr><tr><td><div><table><tr><td><div>Dise\xc3\xb1o de p\xc3\xa1gina</div></td></tr><tr><td><div>False</div></td></tr><tr><td><div>/admin/default/edit/leg_catedes/views/layout.html</div></td></tr></table></div></td></tr><tr><td><div><table><tr><td><div>Hoja de estilo</div></td></tr><tr><td><div>False</div></td></tr><tr><td><div>/admin/default/edit/leg_catedes/static/css/web2py-bootstrap3.css</div></td></tr></table></div></td></tr><tr><td><div><table><tr><td><div>Base de datos</div></td></tr><tr><td><div>False</div></td></tr><tr><td><div>/leg_catedes/appadmin/index</div></td></tr></table></div></td></tr><tr><td><div><table><tr><td><div>Errores</div></td></tr><tr><td><div>False</div></td></tr><tr><td><div>/admin/default/errors/leg_catedes</div></td></tr></table></div></td></tr><tr><td><div><table><tr><td><div>Acerca de</div></td></tr><tr><td><div>False</div></td></tr><tr><td><div>/admin/default/about/leg_catedes</div></td></tr></table></div></td></tr></table></div></td></tr></table></div></td></tr><tr><td><div><table><tr><td><div>web2py.com</div></td></tr><tr><td><div>False</div></td></tr><tr><td><div>#</div></td></tr><tr><td><div><table><tr><td><div><table><tr><td><div>Descargas</div></td></tr><tr><td><div>False</div></td></tr><tr><td><div>http://www.web2py.com/examples/default/download</div></td></tr></table></div></td></tr><tr><td><div><table><tr><td><div>Soporte</div></td></tr><tr><td><div>False</div></td></tr><tr><td><div>http://www.web2py.com/examples/default/support</div></td></tr></table></div></td></tr><tr><td><div><table><tr><td><div>Demostraci\xc3\xb3n</div></td></tr><tr><td><div>False</div></td></tr><tr><td><div>http://web2py.com/demo_admin</div></td></tr></table></div></td></tr><tr><td><div><table><tr><td><div>Ejemplos R\xc3\xa1pidos</div></td></tr><tr><td><div>False</div></td></tr><tr><td><div>http://web2py.com/examples/default/examples</div></td></tr></table></div></td></tr><tr><td><div><table><tr><td><div>FAQ</div></td></tr><tr><td><div>False</div></td></tr><tr><td><div>http://web2py.com/AlterEgo</div></td></tr></table></div></td></tr><tr><td><div><table><tr><td><div>V\xc3\xaddeos</div></td></tr><tr><td><div>False</div></td></tr><tr><td><div>http://www.web2py.com/examples/default/videos/</div></td></tr></table></div></td></tr><tr><td><div><table><tr><td><div>Aplicaciones Libres</div></td></tr><tr><td><div>False</div></td></tr><tr><td><div>http://web2py.com/appliances</div></td></tr></table></div></td></tr><tr><td><div><table><tr><td><div>Plugins</div></td></tr><tr><td><div>False</div></td></tr><tr><td><div>http://web2py.com/plugins</div></td></tr></table></div></td></tr><tr><td><div><table><tr><td><div>Recetas</div></td></tr><tr><td><div>False</div></td></tr><tr><td><div>http://web2pyslices.com/</div></td></tr></table></div></td></tr></table></div></td></tr></table></div></td></tr><tr><td><div><table><tr><td><div>Documentaci\xc3\xb3n</div></td></tr><tr><td><div>False</div></td></tr><tr><td><div>#</div></td></tr><tr><td><div><table><tr><td><div><table><tr><td><div>Online book</div></td></tr><tr><td><div>False</div></td></tr><tr><td><div>http://www.web2py.com/book</div></td></tr></table></div></td></tr><tr><td><div><li class="divider"></li></div></td></tr><tr><td><div><table><tr><td><div>Prefacio</div></td></tr><tr><td><div>False</div></td></tr><tr><td><div>http://www.web2py.com/book/default/chapter/00</div></td></tr></table></div></td></tr><tr><td><div><table><tr><td><div>Introducci\xc3\xb3n</div></td></tr><tr><td><div>False</div></td></tr><tr><td><div>http://www.web2py.com/book/default/chapter/01</div></td></tr></table></div></td></tr><tr><td><div><table><tr><td><div>Python</div></td></tr><tr><td><div>False</div></td></tr><tr><td><div>http://www.web2py.com/book/default/chapter/02</div></td></tr></table></div></td></tr><tr><td><div><table><tr><td><div>Resumen</div></td></tr><tr><td><div>False</div></td></tr><tr><td><div>http://www.web2py.com/book/default/chapter/03</div></td></tr></table></div></td></tr><tr><td><div><table><tr><td><div>El N\xc3\xbacleo</div></td></tr><tr><td><div>False</div></td></tr><tr><td><div>http://www.web2py.com/book/default/chapter/04</div></td></tr></table></div></td></tr><tr><td><div><table><tr><td><div>Las Vistas</div></td></tr><tr><td><div>False</div></td></tr><tr><td><div>http://www.web2py.com/book/default/chapter/05</div></td></tr></table></div></td></tr><tr><td><div><table><tr><td><div>Base de datos</div></td></tr><tr><td><div>False</div></td></tr><tr><td><div>http://www.web2py.com/book/default/chapter/06</div></td></tr></table></div></td></tr><tr><td><div><table><tr><td><div>Formularios y validadores</div></td></tr><tr><td><div>False</div></td></tr><tr><td><div>http://www.web2py.com/book/default/chapter/07</div></td></tr></table></div></td></tr><tr><td><div><table><tr><td><div>Correo electr\xc3\xb3nico y SMS</div></td></tr><tr><td><div>False</div></td></tr><tr><td><div>http://www.web2py.com/book/default/chapter/08</div></td></tr></table></div></td></tr><tr><td><div><table><tr><td><div>Control de Acceso</div></td></tr><tr><td><div>False</div></td></tr><tr><td><div>http://www.web2py.com/book/default/chapter/09</div></td></tr></table></div></td></tr><tr><td><div><table><tr><td><div>Servicios</div></td></tr><tr><td><div>False</div></td></tr><tr><td><div>http://www.web2py.com/book/default/chapter/10</div></td></tr></table></div></td></tr><tr><td><div><table><tr><td><div>Recetas AJAX</div></td></tr><tr><td><div>False</div></td></tr><tr><td><div>http://www.web2py.com/book/default/chapter/11</div></td></tr></table></div></td></tr><tr><td><div><table><tr><td><div>Componentes y Plugins</div></td></tr><tr><td><div>False</div></td></tr><tr><td><div>http://www.web2py.com/book/default/chapter/12</div></td></tr></table></div></td></tr><tr><td><div><table><tr><td><div>Recetas de despliegue</div></td></tr><tr><td><div>False</div></td></tr><tr><td><div>http://www.web2py.com/book/default/chapter/13</div></td></tr></table></div></td></tr><tr><td><div><table><tr><td><div>Otras Recetas</div></td></tr><tr><td><div>False</div></td></tr><tr><td><div>http://www.web2py.com/book/default/chapter/14</div></td></tr></table></div></td></tr><tr><td><div><table><tr><td><div>Helping web2py</div></td></tr><tr><td><div>False</div></td></tr><tr><td><div>http://www.web2py.com/book/default/chapter/15</div></td></tr></table></div></td></tr><tr><td><div><table><tr><td><div>Buy web2py\'s book</div></td></tr><tr><td><div>False</div></td></tr><tr><td><div>http://stores.lulu.com/web2py</div></td></tr></table></div></td></tr></table></div></td></tr></table></div></td></tr><tr><td><div><table><tr><td><div>Comunidad</div></td></tr><tr><td><div>False</div></td></tr><tr><td><div>None</div></td></tr><tr><td><div><table><tr><td><div><table><tr><td><div>Grupos</div></td></tr><tr><td><div>False</div></td></tr><tr><td><div>http://www.web2py.com/examples/default/usergroups</div></td></tr></table></div></td></tr><tr><td><div><table><tr><td><div>Twitter</div></td></tr><tr><td><div>False</div></td></tr><tr><td><div>http://twitter.com/web2py</div></td></tr></table></div></td></tr><tr><td><div><table><tr><td><div>Chat en vivo</div></td></tr><tr><td><div>False</div></td></tr><tr><td><div>http://webchat.freenode.net/?channels=web2py</div></td></tr></table></div></td></tr></table></div></td></tr></table></div></td></tr></table></div></td></tr><tr><td style="font-weight:bold;vertical-align:top;">meta</td><td style="vertical-align:top;">:</td><td><div><table><tr><td style="font-weight:bold;vertical-align:top;">author</td><td style="vertical-align:top;">:</td><td><div>Your Name &lt;you@example.com&gt;</div></td></tr><tr><td style="font-weight:bold;vertical-align:top;">description</td><td style="vertical-align:top;">:</td><td><div>a cool new app</div></td></tr><tr><td style="font-weight:bold;vertical-align:top;">generator</td><td style="vertical-align:top;">:</td><td><div>Web2py Web Framework</div></td></tr><tr><td style="font-weight:bold;vertical-align:top;">keywords</td><td style="vertical-align:top;">:</td><td><div><table><tr><td><div>web2py</div></td></tr><tr><td><div>python</div></td></tr><tr><td><div>framework</div></td></tr></table></div></td></tr></table></div></td></tr><tr><td style="font-weight:bold;vertical-align:top;">models_to_run</td><td style="vertical-align:top;">:</td><td><div><table><tr><td><div>^\\w+\\.py$</div></td></tr><tr><td><div>^medica/\\w+\\.py$</div></td></tr><tr><td><div>^medica/ingreso/\\w+\\.py$</div></td></tr></table></div></td></tr><tr><td style="font-weight:bold;vertical-align:top;">postprocessing</td><td style="vertical-align:top;">:</td><td><div><table></table></div></td></tr><tr><td style="font-weight:bold;vertical-align:top;">session_client</td><td style="vertical-align:top;">:</td><td><div>127.0.0.1</div></td></tr><tr><td style="font-weight:bold;vertical-align:top;">session_cookie_compression_level</td><td style="vertical-align:top;">:</td><td><div>None</div></td></tr><tr><td style="font-weight:bold;vertical-align:top;">session_cookie_expires</td><td style="vertical-align:top;">:</td><td><div>None</div></td></tr><tr><td style="font-weight:bold;vertical-align:top;">session_data_name</td><td style="vertical-align:top;">:</td><td><div>session_data_leg_catedes</div></td></tr><tr><td style="font-weight:bold;vertical-align:top;">session_file</td><td style="vertical-align:top;">:</td><td><div>None</div></td></tr><tr><td style="font-weight:bold;vertical-align:top;">session_filename</td><td style="vertical-align:top;">:</td><td><div>E:\\web2py\\applications\\leg_catedes\\sessions\\127.0.0.1-6db57b64-52fb-4de3-9e33-3cefdbf1ad4d</div></td></tr><tr><td style="font-weight:bold;vertical-align:top;">session_hash</td><td style="vertical-align:top;">:</td><td><div>c0762cbf4baf7f9af97c051e7fcb8083</div></td></tr><tr><td style="font-weight:bold;vertical-align:top;">session_id</td><td style="vertical-align:top;">:</td><td><div>127.0.0.1-6db57b64-52fb-4de3-9e33-3cefdbf1ad4d</div></td></tr><tr><td style="font-weight:bold;vertical-align:top;">session_id_name</td><td style="vertical-align:top;">:</td><td><div>session_id_leg_catedes</div></td></tr><tr><td style="font-weight:bold;vertical-align:top;">session_masterapp</td><td style="vertical-align:top;">:</td><td><div>leg_catedes</div></td></tr><tr><td style="font-weight:bold;vertical-align:top;">session_new</td><td style="vertical-align:top;">:</td><td><div>True</div></td></tr><tr><td style="font-weight:bold;vertical-align:top;">session_storage_type</td><td style="vertical-align:top;">:</td><td><div>file</div></td></tr><tr><td style="font-weight:bold;vertical-align:top;">status</td><td style="vertical-align:top;">:</td><td><div>200</div></td></tr><tr><td style="font-weight:bold;vertical-align:top;">subtitle</td><td style="vertical-align:top;">:</td><td><div></div></td></tr><tr><td style="font-weight:bold;vertical-align:top;">title</td><td style="vertical-align:top;">:</td><td><div>Leg Catedes</div></td></tr><tr><td style="font-weight:bold;vertical-align:top;">view</td><td style="vertical-align:top;">:</td><td><div>medica/ingreso.html</div></td></tr></table></div>'
tRp128
sS'locals'
p129
(dp130
S'Service'
p131
S"<class 'gluon.tools.Service'>"
p132
sS'OBJECT'
p133
S"<class 'gluon.html.OBJECT'>"
p134
sS'SQLDB'
p135
S"<class 'pydal.base.DAL'>"
p136
sg121
S'<Storage {}>'
p137
sS'LINK'
p138
S"<class 'gluon.html.LINK'>"
p139
sS'BR'
p140
S"<class 'gluon.html.BR'>"
p141
sS'local_import'
p142
S'<function <lambda>>'
p143
sS'OPTGROUP'
p144
S"<class 'gluon.html.OPTGROUP'>"
p145
sS'__package__'
p146
S'None'
p147
sS'PRE'
p148
S"<class 'gluon.html.PRE'>"
p149
sS'IS_INT_IN_RANGE'
p150
S"<class 'gluon.validators.IS_INT_IN_RANGE'>"
p151
sS'IS_LOWER'
p152
S"<class 'gluon.validators.IS_LOWER'>"
p153
sS'IS_STRONG'
p154
S"<class 'gluon.validators.IS_STRONG'>"
p155
sS'cache'
p156
S'<gluon.cache.Cache object>'
p157
sS'IS_IN_DB'
p158
S"<class 'gluon.validators.IS_IN_DB'>"
p159
sS'TAG'
p160
S'<gluon.html.__TAG__ object>'
p161
sS'SQLField'
p162
S"<class 'pydal.objects.Field'>"
p163
sS'mail'
p164
S'<gluon.tools.Mail object>'
p165
sS'BODY'
p166
S"<class 'gluon.html.BODY'>"
p167
sS'IS_DATE_IN_RANGE'
p168
S"<class 'gluon.validators.IS_DATE_IN_RANGE'>"
p169
sS'IFRAME'
p170
S"<class 'gluon.html.IFRAME'>"
p171
sS'URL'
p172
S'<function URL>'
p173
sS'__file__'
p174
S"r'E:\\web2py\\applications\\leg_catedes\\views\\medica/ingreso.html'"
p175
sS'db'
p176
S'<DAL uri="sqlite://storage.sqlite">'
p177
sS'auth'
p178
S'<gluon.tools.Auth object>'
p179
sS'P'
S"<class 'gluon.html.P'>"
p180
sS'TFOOT'
p181
S"<class 'gluon.html.TFOOT'>"
p182
sS'XHTML'
p183
S"<class 'gluon.html.XHTML'>"
p184
sS'ON'
p185
S'True'
p186
sS'OL'
p187
S"<class 'gluon.html.OL'>"
p188
sS'TEXTAREA'
p189
S"<class 'gluon.html.TEXTAREA'>"
p190
sS'MENU'
p191
S"<class 'gluon.html.MENU'>"
p192
sS'form'
p193
S'<gluon.sqlhtml.SQLFORM object>'
p194
sS'IS_IMAGE'
p195
S"<class 'gluon.validators.IS_IMAGE'>"
p196
sS'EM'
p197
S"<class 'gluon.html.EM'>"
p198
sS'CODE'
p199
S"<class 'gluon.html.CODE'>"
p200
sS'HTTP'
p201
S"<class 'gluon.http.HTTP'>"
p202
sS'HR'
p203
S"<class 'gluon.html.HR'>"
p204
sS'IS_DATETIME'
p205
S"<class 'gluon.validators.IS_DATETIME'>"
p206
sS'STYLE'
p207
S"<class 'gluon.html.STYLE'>"
p208
sS'LABEL'
p209
S"<class 'gluon.html.LABEL'>"
p210
sS'CLEANUP'
p211
S"<class 'gluon.validators.CLEANUP'>"
p212
sS'plugins'
p213
S'<gluon.tools.PluginManager object>'
p214
sS'SELECT'
p215
S"<class 'gluon.html.SELECT'>"
p216
sS'CENTER'
p217
S"<class 'gluon.html.CENTER'>"
p218
sS'Auth'
p219
S"<class 'gluon.tools.Auth'>"
p220
sS'DEVELOPMENT_MENU'
p221
g186
sS'__builtins__'
p222
S"{'ArithmeticError': <type 'exceptions.ArithmeticError'>, 'AssertionError': <type 'exceptions.AssertionError'>, 'AttributeError': <type 'exceptions.AttributeError'>, 'BaseException': <type 'exceptions.BaseException'>, 'BufferError': <type 'exceptions.BufferError'>, 'BytesWarning': <type 'exceptions.BytesWarning'>, 'DeprecationWarning': <type 'exceptions.DeprecationWarning'>, 'EOFError': <type 'exceptions.EOFError'>, 'Ellipsis': Ellipsis, 'EnvironmentError': <type 'exceptions.EnvironmentError'>, ...}"
p223
sS'HTML'
p224
S"<class 'gluon.html.HTML'>"
p225
sS'SQLFORM'
p226
S"<class 'gluon.sqlhtml.SQLFORM'>"
p227
sS'LOAD'
p228
S'<function LOAD>'
p229
sS'redirect'
p230
S'<function redirect>'
p231
sS'set_leg'
p232
S"<Row {'foto': 'legajo.foto.a56436c6fdc21421.6361...9L, 'cuil': '1', 'id': 1L, 'g_sanguineo': 'RH+'}>"
p233
sS'FIELDSET'
p234
S"<class 'gluon.html.FIELDSET'>"
p235
sS'IS_EQUAL_TO'
p236
S"<class 'gluon.validators.IS_EQUAL_TO'>"
p237
sS'embed64'
p238
S'<function embed64>'
p239
sS'IS_LIST_OF'
p240
S"<class 'gluon.validators.IS_LIST_OF'>"
p241
sS'INPUT'
p242
S"<class 'gluon.html.INPUT'>"
p243
sS'EMBED'
p244
S"<class 'gluon.html.EMBED'>"
p245
sS'_'
S'<function _>'
p246
sS'myconf'
p247
S"{'forms': {'formstyle': 'bootstrap3_inline', 'se...': {'names': 'localhost:*, 127.0.0.1:*, *:*, *'}}"
p248
sS'H2'
p249
S"<class 'gluon.html.H2'>"
p250
sS'H3'
p251
S"<class 'gluon.html.H3'>"
p252
sS'AppConfig'
p253
S'<function AppConfig>'
p254
sS'H1'
p255
S"<class 'gluon.html.H1'>"
p256
sS'H6'
p257
S"<class 'gluon.html.H6'>"
p258
sS'H4'
p259
S"<class 'gluon.html.H4'>"
p260
sS'H5'
p261
S"<class 'gluon.html.H5'>"
p262
sS'UL'
p263
S"<class 'gluon.html.UL'>"
p264
sS'IS_UPPER'
p265
S"<class 'gluon.validators.IS_UPPER'>"
p266
sS'xmlescape'
p267
S'<function xmlescape>'
p268
sS'IS_TIME'
p269
S"<class 'gluon.validators.IS_TIME'>"
p270
sS'OPTION'
p271
S"<class 'gluon.html.OPTION'>"
p272
sS'TITLE'
p273
S"<class 'gluon.html.TITLE'>"
p274
sS'CRYPT'
p275
S"<class 'gluon.validators.CRYPT'>"
p276
sS'IS_EMPTY_OR'
p277
S"<class 'gluon.validators.IS_EMPTY_OR'>"
p278
sS'MARKMIN'
p279
S"<class 'gluon.html.MARKMIN'>"
p280
sS'__name__'
p281
S"'__restricted__'"
p282
sS'STRONG'
p283
S"<class 'gluon.html.STRONG'>"
p284
sS'COL'
p285
S"<class 'gluon.html.COL'>"
p286
sS'service'
p287
S'<gluon.tools.Service object>'
p288
sS'SCRIPT'
p289
S"<class 'gluon.html.SCRIPT'>"
p290
sS'dni'
p291
S"'29'"
p292
sS'TABLE'
p293
S"<class 'gluon.html.TABLE'>"
p294
sS'IS_IPV4'
p295
S"<class 'gluon.validators.IS_IPV4'>"
p296
sS'IS_LENGTH'
p297
S"<class 'gluon.validators.IS_LENGTH'>"
p298
sS'IS_IPV6'
p299
S"<class 'gluon.validators.IS_IPV6'>"
p300
sS'XML'
p301
S"<class 'gluon.html.XML'>"
p302
sS'B'
S"<class 'gluon.html.B'>"
p303
sS'IMG'
p304
S"<class 'gluon.html.IMG'>"
p305
sS'SQLTABLE'
p306
S"<class 'gluon.sqlhtml.SQLTABLE'>"
p307
sS'IS_MATCH'
p308
S"<class 'gluon.validators.IS_MATCH'>"
p309
sS'IS_ALPHANUMERIC'
p310
S"<class 'gluon.validators.IS_ALPHANUMERIC'>"
p311
sS'SPAN'
p312
S"<class 'gluon.html.SPAN'>"
p313
sS'IS_JSON'
p314
S"<class 'gluon.validators.IS_JSON'>"
p315
sS'IS_IPADDRESS'
p316
S"<class 'gluon.validators.IS_IPADDRESS'>"
p317
sS'IS_SLUG'
p318
S"<class 'gluon.validators.IS_SLUG'>"
p319
sS'BEAUTIFY'
p320
S"<class 'gluon.html.BEAUTIFY'>"
p321
sS'META'
p322
S"<class 'gluon.html.META'>"
p323
sS'BUTTON'
p324
S"<class 'gluon.html.BUTTON'>"
p325
sS'IS_DATE'
p326
S"<class 'gluon.validators.IS_DATE'>"
p327
sS'IS_EMAIL'
p328
S"<class 'gluon.validators.IS_EMAIL'>"
p329
sS'IS_NOT_EMPTY'
p330
S"<class 'gluon.validators.IS_NOT_EMPTY'>"
p331
sS'IS_FLOAT_IN_RANGE'
p332
S"<class 'gluon.validators.IS_FLOAT_IN_RANGE'>"
p333
sS'TBODY'
p334
S"<class 'gluon.html.TBODY'>"
p335
sS'CAT'
p336
S"<class 'gluon.html.CAT'>"
p337
sS'Field'
p338
S"<class 'pydal.objects.Field'>"
p339
sS'IS_LIST_OF_EMAILS'
p340
S"<class 'gluon.validators.IS_LIST_OF_EMAILS'>"
p341
sS'DIV'
p342
S"<class 'gluon.html.DIV'>"
p343
sS'LEGEND'
p344
S"<class 'gluon.html.LEGEND'>"
p345
sS'apellido'
p346
S"'JUL'"
p347
sS'COLGROUP'
p348
S"<class 'gluon.html.COLGROUP'>"
p349
sS'DAL'
p350
S"<class 'pydal.base.DAL'>"
p351
sS'ASSIGNJS'
p352
S'<function ASSIGNJS>'
p353
sS'TR'
p354
S"<class 'gluon.html.TR'>"
p355
sS'LI'
p356
S"<class 'gluon.html.LI'>"
p357
sS'TH'
p358
S"<class 'gluon.html.TH'>"
p359
sS'nombre'
p360
S"'PEPITO'"
p361
sS'TD'
p362
S"<class 'gluon.html.TD'>"
p363
sS'PluginManager'
p364
S"<class 'gluon.tools.PluginManager'>"
p365
sS'IS_URL'
p366
S"<class 'gluon.validators.IS_URL'>"
p367
sS'A'
S"<class 'gluon.html.A'>"
p368
sS'HEAD'
p369
S"<class 'gluon.html.HEAD'>"
p370
sS'IS_DATETIME_IN_RANGE'
p371
S"<class 'gluon.validators.IS_DATETIME_IN_RANGE'>"
p372
sS'FORM'
p373
S"<class 'gluon.html.FORM'>"
p374
sS'I'
S"<class 'gluon.html.I'>"
p375
sS'IS_NOT_IN_DB'
p376
S"<class 'gluon.validators.IS_NOT_IN_DB'>"
p377
sg127
S"<Storage {'body': <cStringIO.StringO object at 0...> at 0x064B5670>, 'view': 'medica/ingreso.html'}>"
p378
sS'THEAD'
p379
S"<class 'gluon.html.THEAD'>"
p380
sS'ANY_OF'
p381
S"<class 'gluon.validators.ANY_OF'>"
p382
sS'IS_NULL_OR'
p383
S"<class 'gluon.validators.IS_EMPTY_OR'>"
p384
sg56
S"<Storage {'_vars': None, 'function': 'ingreso', ...der': 'E:\\\\web2py\\\\applications\\\\leg_catedes\\\\'}>"
p385
sS'IS_EXPR'
p386
S"<class 'gluon.validators.IS_EXPR'>"
p387
sS'T'
S'<gluon.languages.translator object>'
p388
sS'IS_IN_SET'
p389
S"<class 'gluon.validators.IS_IN_SET'>"
p390
sS'IS_UPLOAD_FILENAME'
p391
S"<class 'gluon.validators.IS_UPLOAD_FILENAME'>"
p392
sS'TT'
p393
S"<class 'gluon.html.TT'>"
p394
sS'IS_DECIMAL_IN_RANGE'
p395
S"<class 'gluon.validators.IS_DECIMAL_IN_RANGE'>"
p396
sssS'traceback'
p397
S'Traceback (most recent call last):\n  File "E:\\web2py\\gluon\\restricted.py", line 227, in restricted\n    exec ccode in environment\n  File "E:\\web2py\\applications\\leg_catedes\\views\\medica/ingreso.html", line 19, in <module>\n    #f_nacimiento__error{color:#f3f3f4;\nAttributeError: \'NoneType\' object has no attribute \'first_name\'\n'
p398
s.