(dp1
S'output'
p2
S'missing "pass" in view'
p3
sS'layer'
p4
S'ParserContainer'
p5
sS'code'
p6
S'response.write(\'<!DOCTYPE html>\\r\\n<html>\\r\\n<script src="\', escape=False)\nresponse.write(URL(\'static\', \'assets/js/swit-alert.js\'))\nresponse.write(\'"></script> \\r\\n<script src="\', escape=False)\nresponse.write(URL(\'static\', \'js/jquery-3.2.1.js\'))\nresponse.write(\'"></script>\\r\\n<script src="\', escape=False)\nresponse.write(URL(\'static\', \'vue.js\'))\nresponse.write(\'"></script>\\r\\n\\r\\n\\r\\n\\r\\n<!-- Mirrored from webapplayers.com/inspinia_admin-v2.8/empty_page.html by HTTrack Website Copier/3.x [XR&CO\\\'2014], Fri, 29 Jun 2018 13:54:48 GMT -->\\r\\n<head>\\r\\n\\r\\n    <meta charset="utf-8">\\r\\n    <meta name="viewport" content="width=device-width, initial-scale=1.0">\\r\\n\\r\\n    <title>Polic\\xc3\\xada de Catamarca | Sistema Escuela de Cadetes </title>\\r\\n\\r\\n    <link href="\', escape=False)\nresponse.write(URL(\'static\', \'assets/css/bootstrap.min.css\'))\nresponse.write(\'" rel="stylesheet">\\r\\n    <link href="\', escape=False)\nresponse.write(URL(\'static\', \'assets/font-awesome/css/font-awesome.css\' ))\nresponse.write(\'" rel="stylesheet">\\r\\n\\r\\n    <link href="\', escape=False)\nresponse.write(URL(\'static\', \'assets/css/plugins/dataTables/datatables.min.css\'))\nresponse.write(\'" rel="stylesheet">\\r\\n\\r\\n    <link href="\', escape=False)\nresponse.write(URL(\'static\', \'assets/css/animate.css\' ))\nresponse.write(\'" rel="stylesheet">\\r\\n    <link href="\', escape=False)\nresponse.write(URL(\'static\', \'assets/css/style.css\' ))\nresponse.write(\'" rel="stylesheet">\\r\\n\\r\\n</head>\\r\\n\\r\\n<body class="">\\r\\n\\r\\n    <div id="wrapper">\\r\\n\\r\\n    <nav class="navbar-default navbar-static-side" role="navigation">\\r\\n        <div class="sidebar-collapse">\\r\\n            <ul class="nav metismenu" id="side-menu">\\r\\n                <li class="nav-header">\\r\\n                    <div class="dropdown profile-element">\\r\\n                        <img alt="image" class="rounded-circle" src="\', escape=False)\nresponse.write(URL(\'static\', \'assets/img/user.png\'))\nresponse.write(\'"/>\\r\\n                        <a data-toggle="dropdown" class="dropdown-toggle" href="#">\\r\\n                            <span class="block m-t-xs font-bold"></span>\\r\\n                            <span class="text-muted text-xs block"> \', escape=False)\nresponse.write(str.upper(auth.user.first_name))\nresponse.write(\'&nbsp;<b class="caret"></b></span>\\r\\n                        </a>\\r\\n                        <ul class="dropdown-menu animated fadeInRight m-t-xs">\\r\\n                            <li><a class="dropdown-item" href="profile.html">\', escape=False)\nresponse.write(str.upper(auth.user.first_name))\nresponse.write(\'</a></li>\\r\\n                            <li><a class="dropdown-item" href="contacts.html">Cambiar Contrase\\xc3\\xb1a</a></li>\\r\\n                            \\r\\n                            <li class="dropdown-divider"></li>\\r\\n                            <li><a class="dropdown-item" href="\', escape=False)\nresponse.write(URL(\'default\', \'user\', args=(\'logout\')))\nresponse.write(\'">Salir</a></li>\\r\\n                        </ul>\\r\\n                    </div>\\r\\n                    <div class="logo-element">\\r\\n                        D4\\r\\n                    </div>\\r\\n                </li>\\r\\n               \\r\\n               \', escape=False)\nif auth.user.Escuela == \'Super\' :\n    response.write(\' \\r\\n                <li>\\r\\n                        <a href="#"><i class="fa fa-plus-square-o"></i> <span class="nav-label">Escuela de Cadetes </span><span class="fa arrow"></span></a>\\r\\n                        <ul class="nav nav-second-level collapse">\\r\\n\\r\\n\\r\\n                            <li>\\r\\n                                <a href="#" id="damian"><i class="fa fa-laptop"></i>Mesa de entrada <span class="fa arrow"></span></a>\\r\\n                                <ul class="nav nav-third-level">\\r\\n                                    <li><a href="\', escape=False)\n    response.write(URL(\'entrada\', \'ingreso\'))\n    response.write(\'">Generar Solicitud</a></li>\\r\\n                                    <li><a href="\', escape=False)\n    response.write(URL(\'entrada\', \'form_ver_estado\'))\n    response.write(\'">Ver Estado</a></li>                              \\r\\n                                    <li><a href="\', escape=False)\n    response.write(URL(\'entrega\', \'entrega\'))\n    response.write(\'">Entregar certicado</a></li>\\r\\n                                    \\r\\n                                </ul>\\r\\n                            </li>\\r\\n                            <li><a href="#"><i class="fa fa-folder-open"></i>Archivo<span class="fa arrow"></span></a>\\r\\n                                <ul class="nav nav-third-level">\\r\\n                                    <li><a href="\', escape=False)\n    response.write(URL(\'archivo\', \'form_archivo\'))\n    response.write(\'">Archivo</a></li>\\r\\n                                   \\r\\n\\r\\n                                </ul>\\r\\n                            </li>\\r\\n                            \\r\\n                            <li>\\r\\n                                <a href="#"><i class="fa fa-newspaper-o"></i>Confecci\\xc3\\xb2n<span class="fa arrow"></span></a>\\r\\n                                <ul class="nav nav-third-level">\\r\\n                                    <li><a href="\', escape=False)\n    response.write(URL(\'confeccion\', \'por_sistema\'))\n    response.write(\'">Imprimir Ingresados Por Sistema</a></li>\\r\\n                                    <li><a href="\', escape=False)\n    response.write(URL(\'confeccion\', \'modificar_padron\'))\n    response.write(\'">Modificar datos Padron</a></li>\\r\\n                                    <li><a href="\', escape=False)\n    response.write(URL(\'confeccion\', \'reimprimir\'))\n    response.write(\'">Certificados Impresos</a></li>\\r\\n                                    <li><a href="\', escape=False)\n    response.write(URL(\'imprimir\', \'margenes\'))\n    response.write(\'">Configurar margenes</a></li> \\r\\n                                    \\r\\n\\r\\n                                </ul>\\r\\n                            </li>\\r\\n                            \\r\\n                           \\r\\n                            <li>\\r\\n                                <a href="#"><i class="fa fa-user-circle-o"></i>Usuarios<span class="fa arrow"></span></a>\\r\\n                                <ul class="nav nav-third-level">\\r\\n                                    <li><a href="\', escape=False)\n    response.write(URL(\'asesoria\', \'usuario_letrada\'))\n    response.write(\'">Listado</a></li>\\r\\n\\r\\n                                </ul>\\r\\n                            </li>\\r\\n                           \\r\\n                        </ul>\\r\\n                    </li>\\r\\n                \\r\\n                \', escape=False)\n    pass\nresponse.write(\'\\r\\n               \\r\\n<<<<<<< HEAD\\r\\n                \', escape=False)\nif auth.user.Escuela == \'Super\' or auth.user.oficina == \'Esc_de_cadetes\':\n    response.write(\'\\r\\n=======\\r\\n                \', escape=False)\n    if auth.user.Escuela == \'Super\' or auth.user.Escuela == \'Esc_de_cadetes\':\n        response.write(\'\\r\\n>>>>>>> ddbcde85df0e2275cbd72fcb885496afb0b9895c\\r\\n                <li>\\r\\n                        <a href="#"><i class="fa fa-plus-square-o"></i> <span class="nav-label"> Escuela de Cadetes</span><span class="fa arrow"></span></a>\\r\\n                        <ul class="nav nav-second-level collapse">\\r\\n\\r\\n\\r\\n                            <li>\\r\\n                                <a href="#" id="damian"><i class="fa fa-laptop"></i>Mesa de entrada <span class="fa arrow"></span></a>\\r\\n                                <ul class="nav nav-third-level">\\r\\n                                    <li><a href="\', escape=False)\n        response.write(URL(\'entrada\', \'ingreso\'))\n        response.write(\'">Generar Solicitud</a></li>\\r\\n                                    <li><a href="\', escape=False)\n        response.write(URL(\'entrada\', \'form_ver_estado\'))\n        response.write(\'">Ver Estado</a></li>                              \\r\\n                                    <li><a href="\', escape=False)\n        response.write(URL(\'entrega\', \'entrega\'))\n        response.write(\'">Entregar certicado</a></li>\\r\\n                                    \\r\\n                                </ul>\\r\\n                            </li>\\r\\n                            <li><a href="#"><i class="fa fa-folder-open"></i>Archivo<span class="fa arrow"></span></a>\\r\\n                                <ul class="nav nav-third-level">\\r\\n                                    <li><a href="\', escape=False)\n        response.write(URL(\'archivo\', \'form_archivo\'))\n        response.write(\'">Archivo</a></li>\\r\\n                                   \\r\\n\\r\\n                                </ul>\\r\\n                            </li>\\r\\n                            \\r\\n                            <li>\\r\\n                                <a href="#"><i class="fa fa-newspaper-o"></i>Confecci\\xc3\\xb2n<span class="fa arrow"></span></a>\\r\\n                                <ul class="nav nav-third-level">\\r\\n                                    <li><a href="\', escape=False)\n        response.write(URL(\'confeccion\', \'por_sistema\'))\n        response.write(\'">Imprimir ingresados por Sistema</a></li>\\r\\n                                    <li><a href="\', escape=False)\n        response.write(URL(\'confeccion\', \'modificar_padron\'))\n        response.write(\'">Modificar datos Padron</a></li>\\r\\n                                    <li><a href="\', escape=False)\n        response.write(URL(\'confeccion\', \'reimprimir\'))\n        response.write(\'">Certificados Impresos</a></li>\\r\\n                                    <li><a href="\', escape=False)\n        response.write(URL(\'imprimir\', \'margenes\'))\n        response.write(\'">Configurar margenes</a></li> \\r\\n                                    \\r\\n\\r\\n                                </ul>\\r\\n                            </li>\\r\\n                            \\r\\n                           \\r\\n                            \\r\\n                           \\r\\n                        </ul>\\r\\n                    </li>\\r\\n                \', escape=False)\n        pass\n    response.write(\'\\r\\n\\r\\n            </ul>\\r\\n\\r\\n        </div>\\r\\n    </nav>\\r\\n\\r\\n        <div id="page-wrapper" class="gray-bg">\\r\\n        <div class="row border-bottom">\\r\\n        <nav class="navbar navbar-static-top  " role="navigation" style="margin-bottom: 0">\\r\\n\\r\\n        <div class="navbar-header">\\r\\n         <!--   <a class="navbar-minimalize minimalize-styl-2 btn btn-primary " href="#"><i class="fa fa-bars"></i> </a> -->\\r\\n           \\r\\n        </div> \\r\\n\\r\\n            <ul class="nav navbar-top-links navbar-right ">\\r\\n              \\r\\n\\r\\n                <li>\\r\\n                    <a href="\', escape=False)\n    response.write(URL(\'default\', \'user\', args=(\'logout\')))\n    response.write(\'">\\r\\n                        <i class="fa fa-sign-out "></i> Cerrar Sesi\\xc3\\xb3n\\r\\n                    </a>\\r\\n                </li>\\r\\n            </ul>\\r\\n\\r\\n        </nav>\\r\\n        </div>\\r\\n            <div class="row wrapper border-bottom white-bg page-heading">\\r\\n                <div class="col-sm-12">\\r\\n                    \', escape=False)\n    response.write(\'\\r\\n    <h2>P\\xc3\\xa1gina de Inicio</h2>\\r\\n    <ol class="breadcrumb">\\r\\n      <li class="breadcrumb-item">\\r\\n        <a href="\', escape=False)\n    response.write(URL(c=\'default\',f=\'index\'))\n    response.write(\'">Home</a>\\r\\n      </li>\\r\\n      <li class="breadcrumb-item active">\\r\\n        <strong>Inicio</strong>\\r\\n      </li>\\r\\n    </ol>\\r\\n\', escape=False)\n    response.write(\'\\r\\n\\r\\n                   \\r\\n                </div>\\r\\n                \\r\\n            </div>\\r\\n\\r\\n\\r\\n            <div class="wrapper wrapper-content">\\r\\n               \', escape=False)\n    response.write(\'\\r\\n\\r\\n\\r\\n<style>\\r\\n\\r\\n  div.dataTables_wrapper div.dataTables_info {\\r\\n    padding-top: 50px;\\r\\n    white-space: nowrap;\\r\\n}\\r\\n\\r\\ndiv.dataTables_wrapper div.dataTables_paginate {\\r\\n    margin: 0;\\r\\n    white-space: nowrap;\\r\\n    text-align: right;\\r\\n    padding-top: 70px;\\r\\n\\r\\n\\r\\n}\\r\\n\\r\\n.pagination {\\r\\n    display: -ms-flexbox;\\r\\n    display: inline-flex;\\r\\n    padding-left: 0;\\r\\n    list-style: none;\\r\\n    border-radius: .25rem;\\r\\n}\\r\\n\\r\\n</style>\\r\\n\\r\\n\\r\\n\\r\\n\\r\\n\', escape=False)\n    response.write(\'\\r\\n\\r\\n  \\r\\n\\r\\n\\r\\n\\r\\n<div class="row animated fadeInRightBig">\\r\\n  <div class="col-lg-2">\\r\\n    <div class="widget style1 navy-bg">\\r\\n      <div class="row vertical-align">\\r\\n        <div class="col-2">\\r\\n\\r\\n          <i class="fa fa-male fa-2x"></i>\\r\\n\\r\\n          \\r\\n        </div>\\r\\n        <div class="col-10 text-right">\\r\\n          <h5 class="font-bold"><a href="\', escape=False)\n    response.write(URL(c=\'nuevo\',f=\'check\'))\n    response.write(\'" style="color: #FFF">Nuevo Cadete</a></h5>\\r\\n        </div>\\r\\n      </div>\\r\\n    </div>\\r\\n  </div>\\r\\n  <div class="col-lg-2">\\r\\n    <div class="widget style1 yellow-bg">\\r\\n      <div class="row vertical-align">\\r\\n        <div class="col-2">\\r\\n          <i class="fa fa-folder-open fa-2x"></i>\\r\\n        </div>\\r\\n        <div class="col-10 text-right">\\r\\n\\r\\n          <h5 class="font-bold"><a href="\', escape=False)\n    response.write(URL(c=\'medica\',f=\'medica\'))\n    response.write(\'" style="color: #FFF">Certificados Medicos</a></h5>\\r\\n        </div>\\r\\n      </div>\\r\\n    </div>\\r\\n  </div>\\r\\n  <div class="col-lg-2">\\r\\n    <div class="widget style1 blue-bg">\\r\\n      <div class="row vertical-align">\\r\\n        <div class="col-2">\\r\\n\\r\\n\\r\\n          <i class="fa fa-newspaper-o fa-2x"></i>\\r\\n        </div>\\r\\n        <div class="col-10 text-right">\\r\\n          <h5 class="font-bold"><a href="\', escape=False)\n    response.write(URL(c=\'sanciones\',f=\'listado\'))\n    response.write(\'" style="color: #FFF">Sanciones</a></h5>\\r\\n        </div>\\r\\n      </div>\\r\\n    </div>\\r\\n  </div>\\r\\n\\r\\n\\r\\n<div class="col-lg-2">\\r\\n    <div class="widget style1 black-bg">\\r\\n      <div class="row vertical-align">\\r\\n        <div class="col-2">\\r\\n\\r\\n\\r\\n          <i class="fa fa-area-chart fa-2x"></i>\\r\\n        </div>\\r\\n        <div class="col-10 text-right">\\r\\n          <h5 class="font-bold"><a href="\', escape=False)\n    response.write(URL(c=\'estadisticas\',f=\'menu\'))\n    response.write(\'" style="color: #FFF">Estadisticas</a></h5>\\r\\n        </div>\\r\\n      </div>  \\r\\n    </div>\\r\\n  </div>\\r\\n\\r\\n\\r\\n\\r\\n\\r\\n\\r\\n  <div class="col-lg-2">\\r\\n    <div class="widget style1 red-bg">\\r\\n      <div class="row vertical-align">\\r\\n        <div class="col-2">\\r\\n\\r\\n          <i class="fa fa-group  fa-2x" aria-hidden="true"></i>\\r\\n          \\r\\n        </div>\\r\\n        <div class="col-10 text-right">\\r\\n          <h5 class="font-bold"><a href="\', escape=False)\n    response.write(URL(c=\'confeccion\',f=\'panel\'))\n    response.write(\'" style="color: #FFF">Usuarios</a></h5>\\r\\n        </div>\\r\\n      </div>\\r\\n    </div>\\r\\n  </div>\\r\\n\\r\\n   <div class="col-lg-2">\\r\\n  \\r\\n  </div>\\r\\n  <div class="col-lg-2">\\r\\n    \\r\\n  </div>\\r\\n  \\r\\n  <div class="col-lg-2">\\r\\n   \\r\\n  </div>\\r\\n</div>\\r\\n\\r\\n  \\r\\n\\r\\n<br><br>\\r\\n\\r\\n<h3 class="animated fadeInUp">Listado de Usuarios del Sistema</h3>\\r\\n<br>\\r\\n\\r\\n\\r\\n<div class="ibox-content">\\r\\n  <a href="\', escape=False)\n    response.write(URL(c=\'usuario\',f=\'nuevo\'))\n    response.write(\'" class="btn btn-outline btn-success row animated fadeInRightBig">\\r\\n  <span class="fa fa-upload"></span> Agregar Nuevo Usuario</a><br><br>\\r\\n  <div class="table-responsive">\\r\\n\\r\\n    <div class="well">\\r\\n      <table class="table table-striped" id="myTable">\\r\\n        <thead>\\r\\n          <tr>\\r\\n            <th>Escuela</th>\\r\\n            <th>Nombre</th>\\r\\n            <th>Apellido</th>\\r\\n            <th>Email</th>\\r\\n            <th>Usuario</th>\\r\\n            <th>Dni</th>\\r\\n            <th></th>\\r\\n\\r\\n          </tr>\\r\\n        </thead>\\r\\n        <tbody>\\r\\n\\r\\n        </tbody>\\r\\n      </table>\\r\\n    </div>\\r\\n  </div>\\r\\n \\r\\n  <hr>\\r\\n \\r\\n\\r\\n</div>\\r\\n\\r\\n<br>\\r\\n\\r\\n<script src="https://cdnjs.cloudflare.com/ajax/libs/jquery/3.2.1/jquery.js" type="text/javascript" ></script>\\r\\n<script src="https://cdn.datatables.net/1.10.19/js/jquery.dataTables.min.js" type="text/javascript" ></script>\\r\\n\\r\\n\\r\\n<script>\\r\\n       \\r\\n\\r\\n    $(document).ready( function () {\\r\\n\\r\\n        $.extend(true, $.fn.dataTable.defaults,{\\r\\n            "info":true,\\r\\n            "paging": true,\\r\\n            "ordering":true,\\r\\n            "searching": true,\\r\\n            "language": {\\r\\n                "url": "Spanish.json"\\r\\n            },\\r\\n            lengthMenu: [\\r\\n                [10,20,50,100,500,-1], [10,20,50,100,500,\\\'Todos\\\']\\r\\n            ]\\r\\n\\r\\n        });\\r\\n\\r\\n        table=$(\\\'#myTable\\\').DataTable({\\r\\n            "stateSave": false,\\r\\n            "scrollY": "40vh",\\r\\n            "paging": true,\\r\\n           /* "ajax": {\\r\\n                "url": "[=XML(mf)]",\\r\\n                "dataSrc": "" // Con esto puedo cargar el jason sin que tenga el {"data": ...}\\r\\n            },*/\\r\\n\\r\\n            "data": \', escape=False)\n    response.write(XML(mf))\n    response.write(\', // Aqui se puede ver que puedo cargar el jason puro en una variable y luego usar esa variable*/\\r\\n\\r\\n            \\r\\n      "columns":[\\r\\n        {name:"Escuela", data:"Escuela"},\\r\\n        {name:"first_name", data:"first_name"},\\r\\n        {name:"last_name", data:"last_name"},\\r\\n        {name:"email", data:"email"},\\r\\n        {name:"username", data:"username"},\\r\\n        {name:"dni", data:"dni"},\\r\\n        {defaultContent: \\\'<button type="button" class="editar btn btn-warning btn-xs" >Editar</button> &nbsp;<button type="button" class="eliminar btn btn-danger btn-xs">Eliminar</button>\\\'}\\r\\n      ],  \\r\\n        });\\r\\n\\r\\n        $(\\\'#myTable tbody\\\').on( \\\'click\\\', \\\'button.editar\\\', function(){\\r\\n                var data = table.row( $(this).parents(\\\'tr\\\')).data();\\r\\n                var url = \\\'\', escape=False)\n    response.write(URL(c=\'usuario\', f=\'editar\'))\n    response.write("\' + \'/\' + data.id;\\r\\n                window.location = url\\r\\n               \\r\\n                \\r\\n            });\\r\\n\\r\\n        $(\'#myTable tbody\').on( \'click\', \'button.eliminar\', function(){\\r\\n                var data = table.row( $(this).parents(\'tr\')).data();\\r\\n                var url = \'", escape=False)\n    response.write(URL(c=\'usuario\', f=\'eliminar\'))\n    response.write("\' + \'/\' + data.id;\\r\\n                window.location = url\\r\\n               \\r\\n                \\r\\n            });\\r\\n\\r\\n        } );\\r\\n\\r\\n      \\r\\n\\r\\n        \\r\\n  </script>", escape=False)\n    response.write(\'\\r\\n            </div>\\r\\n            <div class="footer">\\r\\n                <div class="float-right">\\r\\n                    <strong>Copyright</strong> Div. Inform\\xc3\\xa1tica Dpto. Investigaciones Judiciales D-5 <strong>&copy;</strong> 2019\\r\\n                </div>\\r\\n                \\r\\n            </div>\\r\\n\\r\\n        </div>\\r\\n        </div>\\r\\n\\r\\n    <!-- Mainly scripts -->\\r\\n    \\r\\n    \\r\\n    <script src="\', escape=False)\n    response.write(URL(\'static\', \'assets/js/popper.min.js\'))\n    response.write(\'"></script>\\r\\n    <script src="\', escape=False)\n    response.write(URL(\'static\', \'assets/js/bootstrap.js\'))\n    response.write(\'"></script>\\r\\n    <script src="\', escape=False)\n    response.write(URL(\'static\', \'assets/js/plugins/metisMenu/jquery.metisMenu.js\'))\n    response.write(\'"></script>\\r\\n    <script src="\', escape=False)\n    response.write(URL(\'static\', \'assets/js/plugins/slimscroll_DA_PROBLEMAS/jquery.slimscroll.min.js\'))\n    response.write(\'"></script>\\r\\n\\r\\n    <script src="\', escape=False)\n    response.write(URL(\'static\', \'assets/js/plugins/dataTables/datatables.min.js\'))\n    response.write(\'"></script>\\r\\n    <script src="\', escape=False)\n    response.write(URL(\'static\', \'assets/js/plugins/dataTables/dataTables.bootstrap4.min.js\'))\n    response.write(\'"></script>\\r\\n\\r\\n    <!-- Custom and plugin javascript -->\\r\\n    <script src="\', escape=False)\n    response.write(URL(\'static\', \'assets/js/inspinia.js\'))\n    response.write(\'"></script>\\r\\n    <script src="\', escape=False)\n    response.write(URL(\'static\', \'assets/js/plugins/pace/pace.min.js\'))\n    response.write(\'"></script>\\r\\n    <script src="\', escape=False)\n    response.write(URL(\'static\', \'assets/js/plugins/typehead/bootstrap3-typeahead.min.js\'))\n    response.write(\'"></script>\\r\\n    \\r\\n\\r\\n\\r\\n   \\r\\n\\r\\n</body>\\r\\n\\r\\n\\r\\n<!-- Mirrored from webapplayers.com/inspinia_admin-v2.8/empty_page.html by HTTrack Website Copier/3.x [XR&CO\\\'2014], Fri, 29 Jun 2018 13:54:48 GMT -->\\r\\n</html>\\r\\n\', escape=False)'
p7
sS'snapshot'
p8
(dp9
S'exception'
p10
(dp11
S'__module__'
p12
S"'gluon.rocket'"
p13
sS'__getslice__'
p14
S"<method-wrapper '__getslice__' of SocketTimeout object>"
p15
sS'__str__'
p16
S"<method-wrapper '__str__' of SocketTimeout object>"
p17
sS'__reduce__'
p18
S'<built-in method __reduce__ of SocketTimeout object>'
p19
sS'__dict__'
p20
S'{}'
p21
sS'__sizeof__'
p22
S'<built-in method __sizeof__ of SocketTimeout object>'
p23
sS'__weakref__'
p24
S'None'
p25
sS'__init__'
p26
S"<method-wrapper '__init__' of SocketTimeout object>"
p27
sS'__setattr__'
p28
S"<method-wrapper '__setattr__' of SocketTimeout object>"
p29
sS'__reduce_ex__'
p30
S'<built-in method __reduce_ex__ of SocketTimeout object>'
p31
sS'__new__'
p32
S'<built-in method __new__ of type object>'
p33
sS'__format__'
p34
S'<built-in method __format__ of SocketTimeout object>'
p35
sS'__class__'
p36
S"<class 'gluon.rocket.SocketTimeout'>"
p37
sS'__doc__'
p38
S"'Exception for when a socket times out between requests.'"
p39
sS'__getitem__'
p40
S"<method-wrapper '__getitem__' of SocketTimeout object>"
p41
sS'__setstate__'
p42
S'<built-in method __setstate__ of SocketTimeout object>'
p43
sS'__getattribute__'
p44
S"<method-wrapper '__getattribute__' of SocketTimeout object>"
p45
sS'args'
p46
S"('Socket timed out before request.',)"
p47
sS'__subclasshook__'
p48
S'<built-in method __subclasshook__ of type object>'
p49
sS'__unicode__'
p50
S'<built-in method __unicode__ of SocketTimeout object>'
p51
sS'__delattr__'
p52
S"<method-wrapper '__delattr__' of SocketTimeout object>"
p53
sS'__repr__'
p54
S"<method-wrapper '__repr__' of SocketTimeout object>"
p55
sS'__hash__'
p56
S"<method-wrapper '__hash__' of SocketTimeout object>"
p57
ssS'evalue'
p58
S'Socket timed out before request.'
p59
sS'frames'
p60
(lp61
(dp62
S'file'
p63
S'D:\\BACKUP\\web2pyVersion2.14.6\\gluon\\rocket.py'
p64
sS'dump'
p65
(dp66
S'self'
p67
S'<WSGIWorker(Thread-5, started daemon 4728)>'
p68
sS'conn'
p69
S'<gluon.rocket.Connection object>'
p70
sS'self.run_app'
p71
S'<bound method WSGIWorker.run_app of <WSGIWorker(Thread-5, started daemon 4728)>>'
p72
ssS'lnum'
p73
I1337
sS'lines'
p74
(dp75
I1332
S'            # Enter connection serve loop'
p76
sI1333
S'            while True:'
p77
sI1334
S'                if __debug__:'
p78
sI1335
S"                    self.err_log.debug('Serving a request')"
p79
sI1336
S'                try:'
p80
sI1337
S'                    self.run_app(conn)'
p81
sI1338
S'                except:'
p82
sI1339
S'                    exc = sys.exc_info()'
p83
sI1340
S'                    handled = self._handleError(*exc)'
p84
sI1341
S'                    if handled:'
p85
ssS'call'
p86
S'(self=<WSGIWorker(Thread-5, started daemon 4728)>)'
p87
sS'func'
p88
S'run'
p89
sa(dp90
g63
S'D:\\BACKUP\\web2pyVersion2.14.6\\gluon\\rocket.py'
p91
sg65
(dp92
S'self'
p93
S'<WSGIWorker(Thread-5, started daemon 4728)>'
p94
sS'self.environ'
p95
S"{'HTTP_ACCEPT': 'text/html,application/xhtml+xml,application/xml;q=0.9,image/webp,*/*;q=0.8', 'HTTP_ACCEPT_ENCODING': 'gzip, deflate', 'HTTP_ACCEPT_LANGUAGE': 'es-ES,es;q=0.8,en-US;q=0.5,en;q=0.3', 'HTTP_CONNECTION': 'keep-alive', 'HTTP_COOKIE': 'session_id_welcome=127.0.0.1-c6bc90d0-8a56-49a1-...os=127.0.0.1-2cdb2f7e-ae89-4930-8a1e-efc821e2c9fe', 'HTTP_HOST': '127.0.0.1:8000', 'HTTP_REFERER': 'http://127.0.0.1:8000/esc_legajos/default/user/login?_next=/esc_legajos/default/index', 'HTTP_UPGRADE_INSECURE_REQUESTS': '1', 'HTTP_USER_AGENT': 'Mozilla/5.0 (Windows NT 6.1; Win64; x64; rv:75.0) Gecko/20100101 Firefox/75.0', 'PATH_INFO': '/esc_legajos/default/index', ...}"
p96
sS'sock_file'
p97
S'<socket._fileobject object>'
p98
sS'environ'
p99
S'undefined'
p100
sS'self.build_environ'
p101
S'<bound method WSGIWorker.build_environ of <WSGIWorker(Thread-5, started daemon 4728)>>'
p102
sS'conn'
p103
S'<gluon.rocket.Connection object>'
p104
ssg73
I1830
sg74
(dp105
I1825
S'        else:'
p106
sI1826
S'            sock_file = conn.makefile(BUF_SIZE)'
p107
sI1827
S''
sI1828
S'        try:'
p108
sI1829
S'            # Read the headers and build our WSGI environment'
p109
sI1830
S'            self.environ = environ = self.build_environ(sock_file, conn)'
p110
sI1831
S''
sI1832
S'            # Handle 100 Continue'
p111
sI1833
S"            if environ.get('HTTP_EXPECT', '') == '100-continue':"
p112
sI1834
S"                res = environ['SERVER_PROTOCOL'] + ' 100 Continue\\r\\n\\r\\n'"
p113
ssg86
S'(self=<WSGIWorker(Thread-5, started daemon 4728)>, conn=<gluon.rocket.Connection object>)'
p114
sg88
S'run_app'
p115
sa(dp116
g63
S'D:\\BACKUP\\web2pyVersion2.14.6\\gluon\\rocket.py'
p117
sg65
(dp118
S'sock_file'
p119
S'<socket._fileobject object>'
p120
sS'self.read_request_line'
p121
S'<bound method WSGIWorker.read_request_line of <WSGIWorker(Thread-5, started daemon 4728)>>'
p122
sS'self'
p123
S'<WSGIWorker(Thread-5, started daemon 4728)>'
p124
sS'request'
p125
g100
ssg73
I1650
sg74
(dp126
I1645
S'                                      "wsgiorg.futures": executor.futures})'
p127
sI1646
S''
sI1647
S'    def build_environ(self, sock_file, conn):'
p128
sI1648
S'        """ Build the execution environment. """'
p129
sI1649
S'        # Grab the request line'
p130
sI1650
S'        request = self.read_request_line(sock_file)'
p131
sI1651
S''
sI1652
S'        # Copy the Base Environment'
p132
sI1653
S'        environ = self.base_environ.copy()'
p133
sI1654
S''
ssg86
S'(self=<WSGIWorker(Thread-5, started daemon 4728)>, sock_file=<socket._fileobject object>, conn=<gluon.rocket.Connection object>)'
p134
sg88
S'build_environ'
p135
sa(dp136
g63
S'D:\\BACKUP\\web2pyVersion2.14.6\\gluon\\rocket.py'
p137
sg65
(dp138
S'global SocketTimeout'
p139
S"<class 'gluon.rocket.SocketTimeout'>"
p140
ssg73
I1401
sg74
(dp141
I1396
S''
sI1397
S'                d = sock_file.readline()'
p142
sI1398
S'                if PY3K:'
p143
sI1399
S"                    d = d.decode('ISO-8859-1')"
p144
sI1400
S'        except socket.timeout:'
p145
sI1401
S"            raise SocketTimeout('Socket timed out before request.')"
p146
sI1402
S'        except TypeError:'
p147
sI1403
S'            raise SocketClosed('
p148
sI1404
S"                'SSL bug caused closure of socket.  See '"
p149
sI1405
S'                \'"https://groups.google.com/d/topic/web2py/P_Gw0JxWzCs".\')'
p150
ssg86
S'(self=<WSGIWorker(Thread-5, started daemon 4728)>, sock_file=<socket._fileobject object>)'
p151
sg88
S'read_request_line'
p152
sasS'pyver'
p153
S'Python 2.7.9: D:\\BACKUP\\web2pyVersion2.14.6\\web2py.exe (prefix: )'
p154
sS'etype'
p155
S"<class 'gluon.rocket.SocketTimeout'>"
p156
sS'date'
p157
S'Thu Apr 23 10:44:44 2020'
p158
sS'locals'
p159
(dp160
S'sock_file'
p161
S'<socket._fileobject object>'
p162
sS'self'
p163
S'<WSGIWorker(Thread-5, started daemon 4728)>'
p164
sssS'traceback'
p165
S'Traceback (most recent call last):\n  File "D:\\BACKUP\\web2pyVersion2.14.6\\gluon\\rocket.py", line 1337, in run\n    self.run_app(conn)\n  File "D:\\BACKUP\\web2pyVersion2.14.6\\gluon\\rocket.py", line 1830, in run_app\n    self.environ = environ = self.build_environ(sock_file, conn)\n  File "D:\\BACKUP\\web2pyVersion2.14.6\\gluon\\rocket.py", line 1650, in build_environ\n    request = self.read_request_line(sock_file)\n  File "D:\\BACKUP\\web2pyVersion2.14.6\\gluon\\rocket.py", line 1401, in read_request_line\n    raise SocketTimeout(\'Socket timed out before request.\')\nSocketTimeout: Socket timed out before request.\n'
p166
s.