(dp1
S'output'
p2
S"<type 'exceptions.AttributeError'> 'NoneType' object has no attribute 'first_name'"
p3
sS'layer'
p4
S'D:\\BACKUP\\web2pyVersion2.14.6\\applications\\leg_catedes\\views\\medica/mostrar.html'
p5
sS'code'
p6
S'response.write(\'\\n\', escape=False)\nresponse.write(\'<!DOCTYPE html>\\n<html>\\n<script src="\', escape=False)\nresponse.write(URL(\'static\', \'assets/js/swit-alert.js\'))\nresponse.write(\'"></script> \\n<script src="\', escape=False)\nresponse.write(URL(\'static\', \'js/jquery-3.2.1.js\'))\nresponse.write(\'"></script>\\n<script src="\', escape=False)\nresponse.write(URL(\'static\', \'vue.js\'))\nresponse.write(\'"></script>\\n\\n\\n\\n<!-- Mirrored from webapplayers.com/inspinia_admin-v2.8/empty_page.html by HTTrack Website Copier/3.x [XR&CO\\\'2014], Fri, 29 Jun 2018 13:54:48 GMT -->\\n<head>\\n\\n    <meta charset="utf-8">\\n    <meta name="viewport" content="width=device-width, initial-scale=1.0">\\n\\n    <title>Polic\\xc3\\xada de Catamarca | Sistema Escuela de Cadetes </title>\\n\\n    <link href="\', escape=False)\nresponse.write(URL(\'static\', \'assets/css/bootstrap.min.css\'))\nresponse.write(\'" rel="stylesheet">\\n    <link href="\', escape=False)\nresponse.write(URL(\'static\', \'assets/font-awesome/css/font-awesome.css\' ))\nresponse.write(\'" rel="stylesheet">\\n\\n    <link href="\', escape=False)\nresponse.write(URL(\'static\', \'assets/css/plugins/dataTables/datatables.min.css\'))\nresponse.write(\'" rel="stylesheet">\\n\\n    <link href="\', escape=False)\nresponse.write(URL(\'static\', \'assets/css/animate.css\' ))\nresponse.write(\'" rel="stylesheet">\\n    <link href="\', escape=False)\nresponse.write(URL(\'static\', \'assets/css/style.css\' ))\nresponse.write(\'" rel="stylesheet">\\n\\n</head>\\n\\n<body class="">\\n\\n    <div id="wrapper">\\n\\n    <nav class="navbar-default navbar-static-side" role="navigation">\\n        <div class="sidebar-collapse">\\n            <ul class="nav metismenu" id="side-menu">\\n                <li class="nav-header">\\n                    <div class="dropdown profile-element">\\n                        <img alt="image" class="rounded-circle" src="\', escape=False)\nresponse.write(URL(\'static\', \'assets/img/user.png\'))\nresponse.write(\'"/>\\n                        <a data-toggle="dropdown" class="dropdown-toggle" href="#">\\n                            <span class="block m-t-xs font-bold"></span>\\n                            <span class="text-muted text-xs block"> \', escape=False)\nresponse.write(str.upper(auth.user.first_name))\nresponse.write(\'&nbsp;<b class="caret"></b></span>\\n                        </a>\\n                        <ul class="dropdown-menu animated fadeInRight m-t-xs">\\n                            <li><a class="dropdown-item" href="profile.html">\', escape=False)\nresponse.write(str.upper(auth.user.first_name))\nresponse.write(\'</a></li>\\n                            <li><a class="dropdown-item" href="contacts.html">Cambiar Contrase\\xc3\\xb1a</a></li>\\n                            \\n                            <li class="dropdown-divider"></li>\\n                            <li><a class="dropdown-item" href="\', escape=False)\nresponse.write(URL(\'default\', \'user\', args=(\'logout\')))\nresponse.write(\'">Salir</a></li>\\n                        </ul>\\n                    </div>\\n                    <div class="logo-element">\\n                        D4\\n                    </div>\\n                </li>\\n               \\n               \', escape=False)\nif auth.user.Escuela == \'Super\' :\n    response.write(\' \\n                  <li>\\n                        <a href="#"><i class="fa fa-male fa"></i> <span class="nav-label"> Escuela de Cadetes</span><span class="fa arrow"></span></a>\\n                        <ul class="nav nav-second-level collapse">\\n\\n\\n                            <li>\\n                                <a href="#" id="damian"><i class="fa fa-laptop"></i>Nuevo cadete <span class="fa arrow"></span></a>\\n                                <ul class="nav nav-third-level">\\n                                    <li><a href="\', escape=False)\n    response.write(URL(\'nuevo\', \'check\'))\n    response.write(\'">Nuevo Cadete</a></li>\\n                                    \\n                                    \\n                                </ul>\\n                            </li>\\n                            <li><a href="#"><i class="fa fa-folder-open"></i>Certificados medicos<span class="fa arrow"></span></a>\\n                                <ul class="nav nav-third-level">\\n                                    <li><a href="\', escape=False)\n    response.write(URL(\'medica\', \'medica\'))\n    response.write(\'">Certificados medicos</a></li>\\n                                    \\n\\n                                </ul>\\n                            </li>\\n                            \\n                            <li>\\n                                <a href="#"><i class="fa fa-newspaper-o"></i>Sanciones<span class="fa arrow"></span></a>\\n                                <ul class="nav nav-third-level">\\n                                    <li><a href="\', escape=False)\n    response.write(URL(\'sanciones\', \'listado\'))\n    response.write(\'">Sanciones</a></li>\\n                                    \\n                                    \\n\\n                                </ul>\\n                            </li>\\n                            \\n    \\n                            <li>\\n                                <a href="#"><i class="fa fa-newspaper-o"></i>Estadisticas<span class="fa arrow"></span></a>\\n                                <ul class="nav nav-third-level">\\n                                    <li><a href="\', escape=False)\n    response.write(URL(\'estadisticas\', \'menu\'))\n    response.write(\'">Estadisticas</a></li>\\n                                    \\n                                    \\n\\n                                </ul>\\n                            </li>\\n                           \\n\\n                            <li>\\n                                <a href="#"><i class="fa fa-newspaper-o"></i>Usuarios<span class="fa arrow"></span></a>\\n                                <ul class="nav nav-third-level">\\n                                    <li><a href="\', escape=False)\n    response.write(URL(\'usuario\', \'usuario\'))\n    response.write(\'">Usuarios</a></li>\\n                                    \\n                                    \\n\\n                                </ul>\\n                            </li>\\n                            \\n                           \\n                        </ul>\\n                    </li>\\n                \', escape=False)\n    pass\nresponse.write(\'\\n               \\n\\n                \\n\\n                \', escape=False)\nif auth.user.Escuela == \'Super\' or auth.user.Escuela == \'Esc_de_cadetes\':\n    response.write(\'\\n\\n                <li>\\n                        <a href="#"><i class="fa fa-male fa"></i> <span class="nav-label"> Escuela de Cadetes</span><span class="fa arrow"></span></a>\\n                        <ul class="nav nav-second-level collapse">\\n\\n\\n                            <li>\\n                                <a href="#" id="damian"><i class="fa fa-laptop"></i>Nuevo cadete <span class="fa arrow"></span></a>\\n                                <ul class="nav nav-third-level">\\n                                    <li><a href="\', escape=False)\n    response.write(URL(\'nuevo\', \'check\'))\n    response.write(\'">Nuevo Cadete</a></li>\\n                                    \\n                                    \\n                                </ul>\\n                            </li>\\n                            <li><a href="#"><i class="fa fa-folder-open"></i>Certificados medicos<span class="fa arrow"></span></a>\\n                                <ul class="nav nav-third-level">\\n                                    <li><a href="\', escape=False)\n    response.write(URL(\'medica\', \'medica\'))\n    response.write(\'">Certificados medicos</a></li>\\n                                    \\n\\n                                </ul>\\n                            </li>\\n                            \\n                            <li>\\n                                <a href="#"><i class="fa fa-newspaper-o"></i>Sanciones<span class="fa arrow"></span></a>\\n                                <ul class="nav nav-third-level">\\n                                    <li><a href="\', escape=False)\n    response.write(URL(\'sanciones\', \'listado\'))\n    response.write(\'">Sanciones</a></li>\\n                                    \\n                                    \\n\\n                                </ul>\\n                            </li>\\n                            \\n    \\n                            <li>\\n                                <a href="#"><i class="fa fa-newspaper-o"></i>Estadisticas<span class="fa arrow"></span></a>\\n                                <ul class="nav nav-third-level">\\n                                    <li><a href="\', escape=False)\n    response.write(URL(\'estadisticas\', \'menu\'))\n    response.write(\'">Estadisticas</a></li>\\n                                    \\n                                    \\n\\n                                </ul>\\n                            </li>\\n                           \\n\\n                            <li>\\n                                <a href="#"><i class="fa fa-newspaper-o"></i>Usuarios<span class="fa arrow"></span></a>\\n                                <ul class="nav nav-third-level">\\n                                    <li><a href="\', escape=False)\n    response.write(URL(\'usuario\', \'usuario\'))\n    response.write(\'">Usuarios</a></li>\\n                                    \\n                                    \\n\\n                                </ul>\\n                            </li>\\n                            \\n                           \\n                        </ul>\\n                    </li>\\n                \', escape=False)\n    pass\nresponse.write(\'\\n\\n            </ul>\\n\\n        </div>\\n    </nav>\\n\\n        <div id="page-wrapper" class="gray-bg">\\n        <div class="row border-bottom">\\n        <nav class="navbar navbar-static-top  " role="navigation" style="margin-bottom: 0">\\n\\n        <div class="navbar-header">\\n         <!--   <a class="navbar-minimalize minimalize-styl-2 btn btn-primary " href="#"><i class="fa fa-bars"></i> </a> -->\\n           \\n        </div> \\n\\n            <ul class="nav navbar-top-links navbar-right ">\\n              \\n\\n                <li>\\n                    <a href="\', escape=False)\nresponse.write(URL(\'default\', \'user\', args=(\'logout\')))\nresponse.write(\'">\\n                        <i class="fa fa-sign-out "></i> Cerrar Sesi\\xc3\\xb3n\\n                    </a>\\n                </li>\\n            </ul>\\n\\n        </nav>\\n        </div>\\n            <div class="row wrapper border-bottom white-bg page-heading">\\n                <div class="col-sm-12">\\n                    \', escape=False)\nresponse.write(\'\\n    <h2>P\\xc3\\xa1gina de Inicio</h2>\\n    <ol class="breadcrumb">\\n      <li class="breadcrumb-item">\\n        <a href="\', escape=False)\nresponse.write(URL(c=\'default\',f=\'index\'))\nresponse.write(\'">Home</a>\\n      </li>\\n      <li class="breadcrumb-item active">\\n        <strong>Listado de Notas Medicas</strong>\\n      </li>\\n    </ol>\\n\', escape=False)\nresponse.write(\'\\n\\n                   \\n                </div>\\n                \\n            </div>\\n\\n\\n            <div class="wrapper wrapper-content">\\n               \', escape=False)\nresponse.write(\'\\n\\n\\n<style>\\n\\n  div.dataTables_wrapper div.dataTables_info {\\n    padding-top: 50px;\\n    white-space: nowrap;\\n}\\n\\ndiv.dataTables_wrapper div.dataTables_paginate {\\n    margin: 0;\\n    white-space: nowrap;\\n    text-align: right;\\n    padding-top: 70px;\\n\\n\\n}\\n\\n.pagination {\\n    display: -ms-flexbox;\\n    display: inline-flex;\\n    padding-left: 0;\\n    list-style: none;\\n    border-radius: .25rem;\\n}\\n\\n</style>\\n\\n\\n\\n\\n\', escape=False)\nresponse.write(\'\\n\\n  \\n\\n\\n\\n  \\n\\n<br><br>\\n\\n<h3 class="animated fadeInUp">Listado de Notas Medicas</h3>\\n<br>\\n<a class="btn btn-primary" href="\', escape=False)\nresponse.write(URL(c=\'medica\',f=\'ingreso\',args=dni))\nresponse.write(\'"role="button">NUEVA NOTA MEDICA</a>\\n<a class="btn btn-primary" href="\', escape=False)\nresponse.write(URL(c=\'estadisticas\',f=\'cant_n_medicas\',args=dni))\nresponse.write(\'"role="button">CANTIDAD DE NOTAS MEDICAS</a>\\n\\n<div class="ibox-content">\\n  \\n \\n  <div class="table-responsive">\\n\\n    <div class="well">\\n      <table class="table table-striped" id="myTable">\\n        <thead>\\n          <tr>\\n         \\n            <th>Nombre</th>\\n            <th>Apellido</th>\\n            \\n            <th>Diagnostico</th>            \\n            <th>Dias de Reposo</th>\\n            <th>Tipo de Reposo</th>\\n            <th>Medico</th>  \\n            <th>Fecha de Presentacion</th>\\n            <th>Fecha de Cumplimiento</th>  \\n\\n             <th></th>   \\n\\n          </tr>\\n        </thead>\\n        <tbody>\\n\\n        </tbody>\\n      </table>\\n    </div>\\n  </div>\\n \\n  <hr>\\n \\n\\n</div>\\n\\n<br>\\n\\n<script src="https://cdnjs.cloudflare.com/ajax/libs/jquery/3.2.1/jquery.js" type="text/javascript" ></script>\\n<script src="https://cdn.datatables.net/1.10.19/js/jquery.dataTables.min.js" type="text/javascript" ></script>\\n\\n\\n<script>\\n       \\n\\n    $(document).ready( function () {\\n\\n        $.extend(true, $.fn.dataTable.defaults,{\\n            "info":true,\\n            "paging": true,\\n            "ordering":true,\\n            "searching": true,\\n            "language": {\\n                "url": "Spanish.json"\\n            },\\n            lengthMenu: [\\n                [10,20,50,100,500,-1], [10,20,50,100,500,\\\'Todos\\\']\\n            ]\\n\\n        });\\n\\n        table=$(\\\'#myTable\\\').DataTable({\\n            "stateSave": false,\\n            "scrollY": "40vh",\\n            "paging": true,\\n           /* "ajax": {\\n                "url": "[=XML(mf)]",\\n                "dataSrc": "" // Con esto puedo cargar el jason sin que tenga el {"data": ...}\\n            },*/\\n\\n            "data": \', escape=False)\nresponse.write(XML(mf))\nresponse.write(\', // Aqui se puede ver que puedo cargar el jason puro en una variable y luego usar esa variable*/\\n\\n            \\n      "columns":[\\n     \\n        {name:"nombre", data:"nombre"},\\n        {name:"apellido", data:"apellido"},      \\n       \\n        {name:"diagnostico", data:"diagnostico"},\\n        {name:"reposo", data:"reposo"},\\n        {name:"t_reposo", data:"t_reposo"},\\n        {name:"medico", data:"medico"},\\n        {name:"fecha", data:"fecha"},\\n        {name:"fecha_c", data:"fecha_c"},\\n\\n        \\n        {defaultContent: \\\'<button type="button" class="editar btn btn-warning btn-xs" >Editar</button>\\\'}\\n      ],  \\n        });\\n\\n        $(\\\'#myTable tbody\\\').on( \\\'click\\\', \\\'button.editar\\\', function(){\\n                var data = table.row( $(this).parents(\\\'tr\\\')).data();\\n                var url = \\\'\', escape=False)\nresponse.write(URL(c=\'medica\', f=\'editar\'))\nresponse.write("\' + \'/\' + data.id;\\n                window.location = url\\n               \\n                \\n            });\\n\\n        \\n\\n        } );\\n\\n      \\n\\n        \\n  </script>\\n\\n\\n\\n\\n\\n\\n", escape=False)\nresponse.write(\'\\n            </div>\\n            <div class="footer">\\n                <div class="float-right">\\n                    <strong>Copyright</strong> Div. Inform\\xc3\\xa1tica Dpto. Investigaciones Judiciales D-5 <strong>&copy;</strong> 2019\\n                </div>\\n                \\n            </div>\\n\\n        </div>\\n        </div>\\n\\n    <!-- Mainly scripts -->\\n    \\n    \\n    <script src="\', escape=False)\nresponse.write(URL(\'static\', \'assets/js/popper.min.js\'))\nresponse.write(\'"></script>\\n    <script src="\', escape=False)\nresponse.write(URL(\'static\', \'assets/js/bootstrap.js\'))\nresponse.write(\'"></script>\\n    <script src="\', escape=False)\nresponse.write(URL(\'static\', \'assets/js/plugins/metisMenu/jquery.metisMenu.js\'))\nresponse.write(\'"></script>\\n    <script src="\', escape=False)\nresponse.write(URL(\'static\', \'assets/js/plugins/slimscroll_DA_PROBLEMAS/jquery.slimscroll.min.js\'))\nresponse.write(\'"></script>\\n\\n    <script src="\', escape=False)\nresponse.write(URL(\'static\', \'assets/js/plugins/dataTables/datatables.min.js\'))\nresponse.write(\'"></script>\\n    <script src="\', escape=False)\nresponse.write(URL(\'static\', \'assets/js/plugins/dataTables/dataTables.bootstrap4.min.js\'))\nresponse.write(\'"></script>\\n\\n    <!-- Custom and plugin javascript -->\\n    <script src="\', escape=False)\nresponse.write(URL(\'static\', \'assets/js/inspinia.js\'))\nresponse.write(\'"></script>\\n    <script src="\', escape=False)\nresponse.write(URL(\'static\', \'assets/js/plugins/pace/pace.min.js\'))\nresponse.write(\'"></script>\\n    <script src="\', escape=False)\nresponse.write(URL(\'static\', \'assets/js/plugins/typehead/bootstrap3-typeahead.min.js\'))\nresponse.write(\'"></script>\\n    \\n\\n\\n   \\n\\n</body>\\n\\n\\n<!-- Mirrored from webapplayers.com/inspinia_admin-v2.8/empty_page.html by HTTrack Website Copier/3.x [XR&CO\\\'2014], Fri, 29 Jun 2018 13:54:48 GMT -->\\n</html>\\n\', escape=False)'
p7
sS'snapshot'
p8
(dp9
sS'traceback'
p10
S'Traceback (most recent call last):\n  File "D:\\BACKUP\\web2pyVersion2.14.6\\gluon\\restricted.py", line 227, in restricted\n    exec ccode in environment\n  File "D:\\BACKUP\\web2pyVersion2.14.6\\applications\\leg_catedes\\views\\medica/mostrar.html", line 21, in <module>\n    .pagination {\nAttributeError: \'NoneType\' object has no attribute \'first_name\'\n'
p11
s.